Certificate:
    Data:
        Version: 3 (0x2)
        Serial Number: 1 (0x1)
        Signature Algorithm: md5WithRSAEncryption
        Issuer: O=Grid, OU=RachanaTest, CN=TestCA
        Validity
            Not Before: Aug  6 21:35:20 2003 GMT
            Not After : Aug  5 21:35:20 2004 GMT
        Subject: O=Grid, OU=RachanaTest, OU=slangme.org, CN=Rachana
        Subject Public Key Info:
            Public Key Algorithm: rsaEncryption
            RSA Public Key: (1024 bit)
                Modulus (1024 bit):
                    00:bb:bf:75:a6:65:2c:c6:70:1e:c0:ab:e9:5e:41:
                    23:7a:94:b0:77:13:37:3b:c2:8a:a5:7a:49:b3:ff:
                    93:61:9f:08:16:9b:8c:6d:36:37:a2:9f:99:d4:34:
                    bd:f1:7f:02:14:dd:85:5d:65:b6:71:c5:28:12:b1:
                    8f:c4:c3:21:bb:db:3c:15:07:3b:b2:62:0b:20:d4:
                    86:a6:fc:21:61:31:90:1f:0d:fd:7d:9f:50:f0:eb:
                    d7:16:98:ef:25:b8:c6:3b:2a:f7:18:c0:48:11:92:
                    b2:46:02:42:8f:10:95:70:93:82:f6:c3:08:ed:eb:
                    e6:b3:d0:fc:5d:e9:0d:b6:e3
                Exponent: 65537 (0x10001)
        X509v3 extensions:
            Netscape Cert Type: 
                SSL Client, SSL Server, S/MIME, Object Signing
    Signature Algorithm: md5WithRSAEncryption
        a4:59:1b:c7:6a:66:dc:89:09:24:11:1c:eb:72:da:7b:48:55:
        6d:0c:5c:a1:fe:58:8f:ca:c7:03:31:48:97:8d:36:25:72:eb:
        da:bb:62:1a:95:f9:be:fe:d5:90:09:0a:08:34:9d:4d:2c:93:
        37:dd:d2:6f:dc:5e:76:5d:9a:f3:7c:08:8f:c3:8c:8b:4c:b5:
        a1:f8:15:90:33:e3:f7:3c:16:0f:22:65:b9:83:24:04:e7:28:
        13:f1:24:71:3b:09:be:1f:d3:6a:ed:7f:ac:2c:66:88:43:2c:
        0f:67:98:b5:43:9c:19:b4:cd:54:69:a1:3a:cf:b9:f6:f8:42:
        98:29
-----BEGIN CERTIFICATE-----
MIICDjCCAXegAwIBAgIBATANBgkqhkiG9w0BAQQFADA2MQ0wCwYDVQQKEwRHcmlk
MRQwEgYDVQQLEwtSYWNoYW5hVGVzdDEPMA0GA1UEAxMGVGVzdENBMB4XDTAzMDgw
NjIxMzUyMFoXDTA0MDgwNTIxMzUyMFowTTENMAsGA1UEChMER3JpZDEUMBIGA1UE
CxMLUmFjaGFuYVRlc3QxFDASBgNVBAsTC3NsYW5nbWUub3JnMRAwDgYDVQQDEwdS
YWNoYW5hMIGfMA0GCSqGSIb3DQEBAQUAA4GNADCBiQKBgQC7v3WmZSzGcB7Aq+le
QSN6lLB3Ezc7woqlekmz/5NhnwgWm4xtNjein5nUNL3xfwIU3YVdZbZxxSgSsY/E
wyG72zwVBzuyYgsg1Iam/CFhMZAfDf19n1Dw69cWmO8luMY7KvcYwEgRkrJGAkKP
EJVwk4L2wwjt6+az0Pxd6Q224wIDAQABoxUwEzARBglghkgBhvhCAQEEBAMCBPAw
DQYJKoZIhvcNAQEEBQADgYEApFkbx2pm3IkJJBEc63Lae0hVbQxcof5Yj8rHAzFI
l402JXLr2rtiGpX5vv7VkAkKCDSdTSyTN93Sb9xedl2a83wIj8OMi0y1ofgVkDPj
9zwWDyJluYMkBOcoE/EkcTsJvh/Tau1/rCxmiEMsD2eYtUOcGbTNVGmhOs+59vhC
mCk=
-----END CERTIFICATE-----
