Certificate:
    Data:
        Version: 3 (0x2)
        Serial Number: 3 (0x3)
        Signature Algorithm: md5WithRSAEncryption
        Issuer: O=test CA2, OU=simple ca, CN=Globus Test
        Validity
            Not Before: May 23 01:10:19 2006 GMT
            Not After : May 23 01:10:19 2007 GMT
        Subject: O=test CA2, OU=simple ca, CN=user1
        Subject Public Key Info:
            Public Key Algorithm: rsaEncryption
            RSA Public Key: (1024 bit)
                Modulus (1024 bit):
                    00:f8:a4:b9:93:21:e0:ef:21:51:e2:2f:92:83:8f:
                    e6:9f:69:3b:50:2f:34:3d:ba:33:da:a5:de:4c:84:
                    9f:af:45:11:04:b0:db:16:09:13:b9:97:a1:d6:9d:
                    bb:19:ce:b7:5f:69:3f:7b:87:0a:57:05:00:8c:88:
                    2c:2f:82:d9:d9:6d:3c:bf:13:9d:75:16:ae:dc:91:
                    e1:28:0b:47:cf:95:20:03:98:47:7e:da:f3:c7:e3:
                    01:81:b6:f9:36:ca:56:eb:4b:66:70:82:51:a8:c7:
                    1e:f5:44:ed:b8:ae:ad:68:93:51:ea:ca:92:b2:ca:
                    e4:bf:25:52:a7:25:b0:c4:9d
                Exponent: 65537 (0x10001)
        X509v3 extensions:
            Netscape Cert Type: 
                SSL Client, SSL Server, S/MIME, Object Signing
    Signature Algorithm: md5WithRSAEncryption
        25:02:84:10:a3:de:1f:56:2a:41:48:58:ee:ab:9d:4f:88:ac:
        da:56:3b:62:00:a9:16:a1:e3:e3:81:03:c8:22:a3:d0:79:94:
        76:d8:e7:62:0c:01:cc:50:e7:04:76:e8:6e:49:ed:d8:1f:93:
        1d:ca:8b:52:7e:97:9f:cf:90:57:83:d0:03:97:fb:eb:cf:39:
        e2:2d:f3:e4:8e:32:91:6d:a7:10:54:38:09:0f:85:b5:f6:21:
        25:7d:1f:2a:9e:c0:8d:52:67:fa:a7:d4:0f:5c:9e:e1:e1:18:
        8a:91:21:87:f6:ed:92:16:a5:e7:f8:f5:07:1c:4a:d5:36:f2:
        03:32
-----BEGIN CERTIFICATE-----
MIIB/zCCAWigAwIBAgIBAzANBgkqhkiG9w0BAQQFADA9MREwDwYDVQQKEwh0ZXN0
IENBMjESMBAGA1UECxMJc2ltcGxlIGNhMRQwEgYDVQQDEwtHbG9idXMgVGVzdDAe
Fw0wNjA1MjMwMTEwMTlaFw0wNzA1MjMwMTEwMTlaMDcxETAPBgNVBAoTCHRlc3Qg
Q0EyMRIwEAYDVQQLEwlzaW1wbGUgY2ExDjAMBgNVBAMTBXVzZXIxMIGfMA0GCSqG
SIb3DQEBAQUAA4GNADCBiQKBgQD4pLmTIeDvIVHiL5KDj+afaTtQLzQ9ujPapd5M
hJ+vRREEsNsWCRO5l6HWnbsZzrdfaT97hwpXBQCMiCwvgtnZbTy/E511Fq7ckeEo
C0fPlSADmEd+2vPH4wGBtvk2ylbrS2ZwglGoxx71RO24rq1ok1HqypKyyuS/JVKn
JbDEnQIDAQABoxUwEzARBglghkgBhvhCAQEEBAMCBPAwDQYJKoZIhvcNAQEEBQAD
gYEAJQKEEKPeH1YqQUhY7qudT4is2lY7YgCpFqHj44EDyCKj0HmUdtjnYgwBzFDn
BHbobknt2B+THcqLUn6Xn8+QV4PQA5f768854i3z5I4ykW2nEFQ4CQ+FtfYhJX0f
Kp7AjVJn+qfUD1ye4eEYipEhh/btkhal5/j1BxxK1TbyAzI=
-----END CERTIFICATE-----
