Certificate:
    Data:
        Version: 3 (0x2)
        Serial Number: 1 (0x1)
        Signature Algorithm: md5WithRSAEncryption
        Issuer: O=test CA2, OU=simple ca, CN=Globus Test
        Validity
            Not Before: May 23 01:09:59 2006 GMT
            Not After : May 23 01:09:59 2007 GMT
        Subject: O=test CA2, OU=simple ca, CN=user3
        Subject Public Key Info:
            Public Key Algorithm: rsaEncryption
            RSA Public Key: (1024 bit)
                Modulus (1024 bit):
                    00:da:42:3d:c9:67:f7:04:18:59:bc:23:30:da:3b:
                    6d:26:cd:5e:a9:1b:89:b4:da:d2:77:e3:92:9c:ff:
                    8b:c3:01:06:bd:34:1b:ef:7e:86:58:5d:e0:92:f6:
                    06:c8:20:9e:9d:54:9a:a5:7e:2a:51:69:84:c0:70:
                    35:e1:f2:b6:cb:f0:73:cc:d8:6a:11:1d:7d:aa:7e:
                    78:c4:fa:57:0f:d8:e0:bc:62:30:68:bb:4b:6f:e0:
                    fb:87:bd:f4:b0:e6:f3:bb:4f:4d:ad:26:0e:85:7e:
                    a1:c0:69:b4:e6:d7:af:98:65:6b:0e:d6:8e:ba:cc:
                    7f:89:c2:48:25:dd:c6:b2:83
                Exponent: 65537 (0x10001)
        X509v3 extensions:
            Netscape Cert Type: 
                SSL Client, SSL Server, S/MIME, Object Signing
    Signature Algorithm: md5WithRSAEncryption
        19:16:94:0b:71:ba:72:0d:54:88:ba:1e:00:1c:7f:eb:af:ff:
        46:cb:2e:92:99:d3:8c:c0:e3:31:c0:44:e3:ed:fc:44:02:21:
        0c:0f:7a:ae:5e:a6:82:52:9b:bd:aa:3e:7f:de:d6:45:0f:4a:
        3e:1c:83:ab:79:a7:ad:97:40:84:be:37:55:09:56:ee:a7:ed:
        75:50:c8:76:e9:90:c9:b7:87:01:44:88:c6:30:b8:a9:c4:a6:
        ac:0f:91:33:17:42:78:f0:26:d8:08:51:f1:81:db:a0:b6:94:
        d2:57:3a:f5:f1:5d:91:f8:03:d1:ad:c0:c4:70:63:70:8f:93:
        94:69
-----BEGIN CERTIFICATE-----
MIIB/zCCAWigAwIBAgIBATANBgkqhkiG9w0BAQQFADA9MREwDwYDVQQKEwh0ZXN0
IENBMjESMBAGA1UECxMJc2ltcGxlIGNhMRQwEgYDVQQDEwtHbG9idXMgVGVzdDAe
Fw0wNjA1MjMwMTA5NTlaFw0wNzA1MjMwMTA5NTlaMDcxETAPBgNVBAoTCHRlc3Qg
Q0EyMRIwEAYDVQQLEwlzaW1wbGUgY2ExDjAMBgNVBAMTBXVzZXIzMIGfMA0GCSqG
SIb3DQEBAQUAA4GNADCBiQKBgQDaQj3JZ/cEGFm8IzDaO20mzV6pG4m02tJ345Kc
/4vDAQa9NBvvfoZYXeCS9gbIIJ6dVJqlfipRaYTAcDXh8rbL8HPM2GoRHX2qfnjE
+lcP2OC8YjBou0tv4PuHvfSw5vO7T02tJg6FfqHAabTm16+YZWsO1o66zH+Jwkgl
3caygwIDAQABoxUwEzARBglghkgBhvhCAQEEBAMCBPAwDQYJKoZIhvcNAQEEBQAD
gYEAGRaUC3G6cg1UiLoeABx/66//RssukpnTjMDjMcBE4+38RAIhDA96rl6mglKb
vao+f97WRQ9KPhyDq3mnrZdAhL43VQlW7qftdVDIdumQybeHAUSIxjC4qcSmrA+R
MxdCePAm2AhR8YHboLaU0lc69fFdkfgD0a3AxHBjcI+TlGk=
-----END CERTIFICATE-----
