Certificate:
    Data:
        Version: 3 (0x2)
        Serial Number: 4 (0x4)
        Signature Algorithm: md5WithRSAEncryption
        Issuer: O=test CA1, OU=simple ca, CN=Globus Test
        Validity
            Not Before: May 22 23:59:34 2006 GMT
            Not After : Feb 15 23:59:34 2009 GMT
        Subject: O=test CA1, OU=simple ca, CN=user2
        Subject Public Key Info:
            Public Key Algorithm: rsaEncryption
            RSA Public Key: (1024 bit)
                Modulus (1024 bit):
                    00:d6:3f:6f:0d:c2:12:4e:ec:09:26:42:19:01:76:
                    13:ff:4d:df:40:a0:ae:60:4c:7d:1e:54:93:31:6e:
                    1a:e5:c3:88:c7:2e:0a:6d:e4:88:13:82:7d:59:be:
                    01:b2:21:34:99:48:a1:e1:1e:e9:27:a7:e5:3f:3c:
                    63:f8:ad:7e:0c:94:12:1e:cf:b7:1f:e9:ff:9d:87:
                    74:ef:94:70:c3:73:f5:06:e7:82:e3:5b:fc:bd:f8:
                    8e:39:53:3a:c7:00:9d:1b:59:ce:9b:5e:c3:9f:b5:
                    6f:1d:60:38:36:14:c8:f3:f4:ce:5a:f6:f0:54:fd:
                    d6:43:c8:c0:a7:f4:a1:2b:4b
                Exponent: 65537 (0x10001)
        X509v3 extensions:
            Netscape Cert Type: 
                SSL Client, SSL Server, S/MIME, Object Signing
    Signature Algorithm: md5WithRSAEncryption
        ab:78:78:3c:c5:23:c0:8f:f0:d6:29:e6:ad:cc:e2:73:23:ba:
        a8:af:28:b8:ca:7c:99:40:32:20:dc:49:1c:32:15:db:bc:91:
        52:42:e5:5a:50:01:8a:cd:75:56:0b:d0:8a:e2:86:e9:e8:46:
        1f:d7:92:62:1b:88:a7:0e:f9:2c:69:ff:f1:33:d6:0d:cc:71:
        e3:e9:71:e2:52:31:b4:c4:97:4a:ee:d1:0c:44:16:2b:3c:3e:
        e2:86:12:c6:a9:cd:93:96:f3:b3:56:11:a4:95:e6:22:29:bf:
        95:b5:43:65:b8:5b:0c:5f:ca:ae:8f:a4:d1:72:c3:ca:f4:35:
        20:b6
-----BEGIN CERTIFICATE-----
MIIB/zCCAWigAwIBAgIBBDANBgkqhkiG9w0BAQQFADA9MREwDwYDVQQKEwh0ZXN0
IENBMTESMBAGA1UECxMJc2ltcGxlIGNhMRQwEgYDVQQDEwtHbG9idXMgVGVzdDAe
Fw0wNjA1MjIyMzU5MzRaFw0wOTAyMTUyMzU5MzRaMDcxETAPBgNVBAoTCHRlc3Qg
Q0ExMRIwEAYDVQQLEwlzaW1wbGUgY2ExDjAMBgNVBAMTBXVzZXIyMIGfMA0GCSqG
SIb3DQEBAQUAA4GNADCBiQKBgQDWP28NwhJO7AkmQhkBdhP/Td9AoK5gTH0eVJMx
bhrlw4jHLgpt5IgTgn1ZvgGyITSZSKHhHuknp+U/PGP4rX4MlBIez7cf6f+dh3Tv
lHDDc/UG54LjW/y9+I45UzrHAJ0bWc6bXsOftW8dYDg2FMjz9M5a9vBU/dZDyMCn
9KErSwIDAQABoxUwEzARBglghkgBhvhCAQEEBAMCBPAwDQYJKoZIhvcNAQEEBQAD
gYEAq3h4PMUjwI/w1inmrczicyO6qK8ouMp8mUAyINxJHDIV27yRUkLlWlABis11
VgvQiuKG6ehGH9eSYhuIpw75LGn/8TPWDcxx4+lx4lIxtMSXSu7RDEQWKzw+4oYS
xqnNk5bzs1YRpJXmIim/lbVDZbhbDF/Kro+k0XLDyvQ1ILY=
-----END CERTIFICATE-----
