Certificate:
    Data:
        Version: 3 (0x2)
        Serial Number: 3 (0x3)
        Signature Algorithm: md5WithRSAEncryption
        Issuer: O=Test CA1, OU=simple ca, CN=Globus Test
        Validity
            Not Before: Nov 24 06:45:24 2003 GMT
            Not After : Nov 23 06:45:24 2004 GMT
        Subject: O=Test CA1, OU=simple ca, OU=mcs.anl.gov, CN=user3
        Subject Public Key Info:
            Public Key Algorithm: rsaEncryption
            RSA Public Key: (1024 bit)
                Modulus (1024 bit):
                    00:cd:40:24:8f:e1:4a:b7:61:08:2b:0f:58:c1:6f:
                    2a:af:fc:63:19:0a:16:05:b6:ff:95:87:78:40:21:
                    8d:7f:d1:2a:bc:f2:7d:3b:0f:32:85:5f:b6:ed:ca:
                    10:47:e3:58:5b:49:0c:91:bf:81:f5:ce:77:0f:13:
                    fd:a6:37:51:59:6c:16:47:c7:f1:f6:90:c2:2a:cb:
                    69:72:5f:0d:30:5b:cf:fb:5e:f2:62:f7:7e:70:6e:
                    29:f0:2d:cf:91:2e:58:aa:0c:5a:7c:b0:f4:80:10:
                    59:99:ce:9c:2d:84:5e:fd:41:f2:fe:c6:d8:35:0c:
                    4d:c2:4d:1e:b6:04:60:dc:69
                Exponent: 65537 (0x10001)
        X509v3 extensions:
            Netscape Cert Type: 
                SSL Client, SSL Server, S/MIME, Object Signing
    Signature Algorithm: md5WithRSAEncryption
        7d:ea:0b:60:b5:5f:81:99:3c:8d:c0:e4:6a:45:34:63:ea:f8:
        36:e5:b9:45:05:4e:a9:a7:b6:6e:7d:9c:fc:c8:e3:e9:96:fb:
        6e:9e:bf:d8:f9:4f:f7:f5:2d:5e:46:a6:e6:5d:2a:dd:5a:77:
        00:41:29:c7:dd:83:61:b0:b7:61:4b:f7:79:03:66:9f:b9:8e:
        87:ab:62:a6:40:91:bf:fd:58:de:b4:6b:5b:cf:15:25:0f:da:
        1d:cd:81:ba:e8:88:f4:8c:d4:8f:e4:91:a2:77:c0:87:df:de:
        ea:99:fb:7b:fd:89:89:3c:44:cf:50:1b:a3:cf:40:ef:8c:c8:
        c4:4d
-----BEGIN CERTIFICATE-----
MIICFTCCAX6gAwIBAgIBAzANBgkqhkiG9w0BAQQFADA9MREwDwYDVQQKEwhUZXN0
IENBMTESMBAGA1UECxMJc2ltcGxlIGNhMRQwEgYDVQQDEwtHbG9idXMgVGVzdDAe
Fw0wMzExMjQwNjQ1MjRaFw0wNDExMjMwNjQ1MjRaME0xETAPBgNVBAoTCFRlc3Qg
Q0ExMRIwEAYDVQQLEwlzaW1wbGUgY2ExFDASBgNVBAsTC21jcy5hbmwuZ292MQ4w
DAYDVQQDEwV1c2VyMzCBnzANBgkqhkiG9w0BAQEFAAOBjQAwgYkCgYEAzUAkj+FK
t2EIKw9YwW8qr/xjGQoWBbb/lYd4QCGNf9EqvPJ9Ow8yhV+27coQR+NYW0kMkb+B
9c53DxP9pjdRWWwWR8fx9pDCKstpcl8NMFvP+17yYvd+cG4p8C3PkS5YqgxafLD0
gBBZmc6cLYRe/UHy/sbYNQxNwk0etgRg3GkCAwEAAaMVMBMwEQYJYIZIAYb4QgEB
BAQDAgTwMA0GCSqGSIb3DQEBBAUAA4GBAH3qC2C1X4GZPI3A5GpFNGPq+DbluUUF
Tqmntm59nPzI4+mW+26ev9j5T/f1LV5GpuZdKt1adwBBKcfdg2Gwt2FL93kDZp+5
joerYqZAkb/9WN60a1vPFSUP2h3NgbroiPSM1I/kkaJ3wIff3uqZ+3v9iYk8RM9Q
G6PPQO+MyMRN
-----END CERTIFICATE-----
