Certificate:
    Data:
        Version: 3 (0x2)
        Serial Number: 3 (0x3)
        Signature Algorithm: md5WithRSAEncryption
        Issuer: O=test CA1, OU=simple ca, CN=Globus Test
        Validity
            Not Before: May 22 23:59:10 2006 GMT
            Not After : Feb 15 23:59:10 2009 GMT
        Subject: O=test CA1, OU=simple ca, CN=user1
        Subject Public Key Info:
            Public Key Algorithm: rsaEncryption
            RSA Public Key: (1024 bit)
                Modulus (1024 bit):
                    00:dd:e5:96:73:6d:6c:62:5f:21:af:33:58:4d:ae:
                    83:0d:f4:ab:ac:71:be:e1:e9:28:24:44:3b:4d:33:
                    4c:dd:60:31:54:5c:e8:0d:fc:53:a7:60:df:d6:11:
                    9e:79:4f:5e:01:bf:9e:88:63:c3:c2:a0:f9:b2:f4:
                    79:8e:73:dc:6c:15:96:ad:e3:10:9b:fd:21:39:35:
                    b2:18:97:98:51:ef:f3:c1:4a:43:f0:a0:25:95:56:
                    c1:2a:1a:3b:96:85:38:d0:2b:39:1f:2f:2c:69:18:
                    4c:28:5b:b9:48:88:03:f6:2a:aa:4f:ea:f6:ee:a3:
                    5a:a5:d9:f8:57:4a:b0:e6:9f
                Exponent: 65537 (0x10001)
        X509v3 extensions:
            Netscape Cert Type: 
                SSL Client, SSL Server, S/MIME, Object Signing
    Signature Algorithm: md5WithRSAEncryption
        83:68:16:35:70:b4:bf:e5:0c:0d:e6:6e:48:6d:ac:52:b9:28:
        a7:c7:2a:cb:3d:d5:88:72:e6:f2:0a:63:99:ca:ac:86:de:17:
        1e:17:29:d8:31:a7:7e:6e:0f:63:ae:25:50:14:67:16:76:e1:
        08:35:55:56:6e:61:a8:18:f7:19:83:3b:d8:20:6b:8b:94:88:
        5a:4d:48:9e:32:92:b0:89:87:16:cd:e0:30:be:9a:08:e0:e0:
        15:9e:36:d4:92:fb:0c:ca:aa:75:f8:65:13:c8:74:bb:c3:f7:
        91:43:a1:99:f4:ed:ab:db:34:95:c0:e2:33:ac:02:55:22:35:
        45:7f
-----BEGIN CERTIFICATE-----
MIIB/zCCAWigAwIBAgIBAzANBgkqhkiG9w0BAQQFADA9MREwDwYDVQQKEwh0ZXN0
IENBMTESMBAGA1UECxMJc2ltcGxlIGNhMRQwEgYDVQQDEwtHbG9idXMgVGVzdDAe
Fw0wNjA1MjIyMzU5MTBaFw0wOTAyMTUyMzU5MTBaMDcxETAPBgNVBAoTCHRlc3Qg
Q0ExMRIwEAYDVQQLEwlzaW1wbGUgY2ExDjAMBgNVBAMTBXVzZXIxMIGfMA0GCSqG
SIb3DQEBAQUAA4GNADCBiQKBgQDd5ZZzbWxiXyGvM1hNroMN9Kuscb7h6SgkRDtN
M0zdYDFUXOgN/FOnYN/WEZ55T14Bv56IY8PCoPmy9HmOc9xsFZat4xCb/SE5NbIY
l5hR7/PBSkPwoCWVVsEqGjuWhTjQKzkfLyxpGEwoW7lIiAP2KqpP6vbuo1ql2fhX
SrDmnwIDAQABoxUwEzARBglghkgBhvhCAQEEBAMCBPAwDQYJKoZIhvcNAQEEBQAD
gYEAg2gWNXC0v+UMDeZuSG2sUrkop8cqyz3ViHLm8gpjmcqsht4XHhcp2DGnfm4P
Y64lUBRnFnbhCDVVVm5hqBj3GYM72CBri5SIWk1InjKSsImHFs3gML6aCODgFZ42
1JL7DMqqdfhlE8h0u8P3kUOhmfTtq9s0lcDiM6wCVSI1RX8=
-----END CERTIFICATE-----
