Certificate:
    Data:
        Version: 3 (0x2)
        Serial Number: 2 (0x2)
        Signature Algorithm: md5WithRSAEncryption
        Issuer: O=test CA2, OU=simple ca, CN=Globus Test
        Validity
            Not Before: May 23 01:10:11 2006 GMT
            Not After : May 23 01:10:11 2007 GMT
        Subject: O=test CA2, OU=simple ca, CN=user2
        Subject Public Key Info:
            Public Key Algorithm: rsaEncryption
            RSA Public Key: (1024 bit)
                Modulus (1024 bit):
                    00:b1:b2:ec:df:13:f2:59:78:68:42:46:2c:9f:88:
                    15:5d:49:a2:d6:54:d0:43:a4:05:c0:0e:e8:6c:aa:
                    28:5f:e9:3c:c9:f3:7e:86:3c:54:b5:67:0d:f0:11:
                    6e:fb:71:b7:84:b7:9f:68:84:22:05:a3:3a:b2:de:
                    55:86:8b:60:5a:72:8f:68:f6:86:66:8b:14:05:5c:
                    c4:3f:84:5c:63:b0:67:08:18:9e:c2:54:24:a7:c0:
                    f6:a8:31:5f:ab:03:5a:41:3c:0d:1d:a6:6b:a2:cd:
                    dd:42:5a:e4:3e:a2:d6:a2:3a:94:fb:28:1d:54:02:
                    9d:c9:70:06:f6:7f:56:fa:b5
                Exponent: 65537 (0x10001)
        X509v3 extensions:
            Netscape Cert Type: 
                SSL Client, SSL Server, S/MIME, Object Signing
    Signature Algorithm: md5WithRSAEncryption
        c7:07:e7:c1:1c:29:e9:6f:d0:60:a7:a1:9f:f4:ff:ab:af:7c:
        9d:6c:4e:78:25:70:2e:c9:f7:2e:f5:bc:e7:aa:6d:29:47:a7:
        8a:9b:51:b4:09:26:f7:25:93:b7:85:1b:a7:6d:0d:00:d7:07:
        43:53:a6:69:4a:99:91:5c:80:70:3f:a0:7e:57:d1:75:8e:94:
        41:7c:4e:ee:74:4a:9f:b3:d2:f3:77:7a:e2:81:53:f7:44:ed:
        ee:02:d1:ac:dd:29:03:27:6e:d9:18:f9:61:b0:bc:81:f3:ce:
        91:3c:8e:d8:96:fa:89:19:47:5f:39:03:fb:0d:47:61:8f:63:
        3b:03
-----BEGIN CERTIFICATE-----
MIIB/zCCAWigAwIBAgIBAjANBgkqhkiG9w0BAQQFADA9MREwDwYDVQQKEwh0ZXN0
IENBMjESMBAGA1UECxMJc2ltcGxlIGNhMRQwEgYDVQQDEwtHbG9idXMgVGVzdDAe
Fw0wNjA1MjMwMTEwMTFaFw0wNzA1MjMwMTEwMTFaMDcxETAPBgNVBAoTCHRlc3Qg
Q0EyMRIwEAYDVQQLEwlzaW1wbGUgY2ExDjAMBgNVBAMTBXVzZXIyMIGfMA0GCSqG
SIb3DQEBAQUAA4GNADCBiQKBgQCxsuzfE/JZeGhCRiyfiBVdSaLWVNBDpAXADuhs
qihf6TzJ836GPFS1Zw3wEW77cbeEt59ohCIFozqy3lWGi2Baco9o9oZmixQFXMQ/
hFxjsGcIGJ7CVCSnwPaoMV+rA1pBPA0dpmuizd1CWuQ+otaiOpT7KB1UAp3JcAb2
f1b6tQIDAQABoxUwEzARBglghkgBhvhCAQEEBAMCBPAwDQYJKoZIhvcNAQEEBQAD
gYEAxwfnwRwp6W/QYKehn/T/q698nWxOeCVwLsn3LvW856ptKUeniptRtAkm9yWT
t4Ubp20NANcHQ1OmaUqZkVyAcD+gflfRdY6UQXxO7nRKn7PS83d64oFT90Tt7gLR
rN0pAydu2Rj5YbC8gfPOkTyO2Jb6iRlHXzkD+w1HYY9jOwM=
-----END CERTIFICATE-----
