Certificate:
    Data:
        Version: 3 (0x2)
        Serial Number: 2 (0x2)
    Signature Algorithm: sha256WithRSAEncryption
        Issuer: DC=org, DC=dCache, CN=disposable-CA
        Validity
            Not Before: May  5 10:40:15 2015 GMT
            Not After : May  4 10:40:15 2016 GMT
        Subject: DC=org, DC=dCache, CN=Bernd das Brot
        Subject Public Key Info:
            Public Key Algorithm: rsaEncryption
                Public-Key: (2048 bit)
                Modulus:
                    00:c3:0a:ad:9a:d9:37:04:6f:96:38:21:96:0a:7b:
                    46:c9:13:6b:96:96:82:47:29:a5:51:2b:ce:07:0d:
                    44:17:ec:32:4f:18:a6:8f:8e:06:fe:cc:c5:77:13:
                    50:7b:9d:33:c9:f6:f7:af:c9:4b:2a:64:82:96:0f:
                    78:9d:13:0d:70:08:e8:b2:ad:9f:2c:ae:99:a8:74:
                    6e:77:4f:ca:e2:ca:41:77:42:2f:b8:e8:a3:59:98:
                    e0:6d:b2:02:db:50:fb:2f:fe:43:11:6f:7f:23:8d:
                    ec:7f:43:62:f5:59:5f:90:3d:7f:76:a1:19:c2:0d:
                    9e:fc:95:6b:8a:0f:85:e2:f2:4d:0c:6f:42:c7:9c:
                    e0:5d:7d:5b:86:4e:b1:c5:67:d3:64:39:4e:6c:21:
                    a2:b9:33:89:2a:b2:2f:84:5c:cc:2a:d7:eb:69:6d:
                    7f:07:c9:7b:7d:d8:ba:b3:07:03:8f:5c:75:5a:a1:
                    1b:67:ff:f5:e5:50:5f:29:b8:6d:33:28:85:13:f6:
                    b3:6b:68:4f:ce:a8:8a:e4:42:da:5a:b2:78:a6:0a:
                    66:ef:2a:b0:3b:f5:6d:10:b4:71:f1:af:58:b6:b6:
                    b4:b9:ca:56:8d:a8:88:1a:b8:26:22:1f:42:4b:be:
                    1a:bc:e4:46:26:2d:96:3d:40:68:7f:fa:88:72:16:
                    db:d3
                Exponent: 65537 (0x10001)
        X509v3 extensions:
            X509v3 Basic Constraints: critical
                CA:FALSE
            X509v3 Key Usage: critical
                Digital Signature, Key Encipherment, Data Encipherment
            Netscape Comment: 
                dCache.org disposable CA generated user certificate
            X509v3 Subject Key Identifier: 
                73:DD:07:1D:CB:D6:D5:81:D2:BE:9B:98:0F:FF:6E:AE:66:32:74:B8
            X509v3 Authority Key Identifier: 
                keyid:CA:C3:10:A7:21:C0:C3:11:2B:BD:9B:D9:03:56:15:EB:59:42:E9:68

            X509v3 Subject Alternative Name: 
                email:support@dcache.org
            X509v3 Extended Key Usage: 
                TLS Web Server Authentication, TLS Web Client Authentication
            X509v3 Issuer Alternative Name: 
                email:support@dcache.org, URI:http://www.dcache.org/
            X509v3 Certificate Policies: 
                Policy: X509v3 Any Policy

    Signature Algorithm: sha256WithRSAEncryption
         17:8b:be:57:ea:05:b2:4c:61:9c:55:e6:1c:f3:43:fa:23:2c:
         4a:76:89:61:57:0f:13:19:0f:98:ec:48:8b:08:1f:25:58:3b:
         32:6f:44:5e:ae:33:f6:91:45:a5:bd:04:12:a9:0b:36:65:67:
         d2:8f:a6:ba:36:84:17:8a:0d:a9:75:b6:28:a3:d7:46:a7:bf:
         0f:78:72:09:00:f9:39:af:62:59:06:cf:30:c1:ce:71:54:3e:
         67:32:9a:d8:0b:9c:c1:de:90:0b:c6:a8:c5:04:d9:9d:df:e8:
         df:79:0a:3c:99:9b:41:a7:b6:9d:25:3c:80:2d:0f:90:38:af:
         e3:1c:c8:6d:86:9e:a6:92:07:7f:27:72:f1:59:7b:03:ad:81:
         00:c7:bc:36:8c:e3:97:7d:ce:c0:88:ee:ea:0f:21:b2:8e:fa:
         a3:86:4d:8d:f6:2a:c6:ae:e9:f4:23:01:4a:4a:90:0c:6e:7b:
         59:2b:e8:ce:f3:ff:32:07:c2:76:97:45:5f:85:11:c3:5e:d3:
         38:71:a7:84:e2:65:76:7c:bf:fd:14:96:c5:a1:10:74:2f:ae:
         fc:27:c4:65:c3:1f:3f:d6:58:be:08:77:73:98:43:f0:99:1e:
         a9:05:c6:99:d9:f8:82:99:e9:62:f8:b8:e5:98:ea:75:94:f7:
         bc:78:01:84
-----BEGIN CERTIFICATE-----
MIIENjCCAx6gAwIBAgIBAjANBgkqhkiG9w0BAQsFADBFMRMwEQYKCZImiZPyLGQB
GRYDb3JnMRYwFAYKCZImiZPyLGQBGRYGZENhY2hlMRYwFAYDVQQDDA1kaXNwb3Nh
YmxlLUNBMB4XDTE1MDUwNTEwNDAxNVoXDTE2MDUwNDEwNDAxNVowRjETMBEGCgmS
JomT8ixkARkWA29yZzEWMBQGCgmSJomT8ixkARkWBmRDYWNoZTEXMBUGA1UEAwwO
QmVybmQgZGFzIEJyb3QwggEiMA0GCSqGSIb3DQEBAQUAA4IBDwAwggEKAoIBAQDD
Cq2a2TcEb5Y4IZYKe0bJE2uWloJHKaVRK84HDUQX7DJPGKaPjgb+zMV3E1B7nTPJ
9vevyUsqZIKWD3idEw1wCOiyrZ8srpmodG53T8riykF3Qi+46KNZmOBtsgLbUPsv
/kMRb38jjex/Q2L1WV+QPX92oRnCDZ78lWuKD4Xi8k0Mb0LHnOBdfVuGTrHFZ9Nk
OU5sIaK5M4kqsi+EXMwq1+tpbX8HyXt92LqzBwOPXHVaoRtn//XlUF8puG0zKIUT
9rNraE/OqIrkQtpasnimCmbvKrA79W0QtHHxr1i2trS5ylaNqIgauCYiH0JLvhq8
5EYmLZY9QGh/+ohyFtvTAgMBAAGjggEuMIIBKjAMBgNVHRMBAf8EAjAAMA4GA1Ud
DwEB/wQEAwIEsDBCBglghkgBhvhCAQ0ENRYzZENhY2hlLm9yZyBkaXNwb3NhYmxl
IENBIGdlbmVyYXRlZCB1c2VyIGNlcnRpZmljYXRlMB0GA1UdDgQWBBRz3Qcdy9bV
gdK+m5gP/26uZjJ0uDAfBgNVHSMEGDAWgBTKwxCnIcDDESu9m9kDVhXrWULpaDAd
BgNVHREEFjAUgRJzdXBwb3J0QGRjYWNoZS5vcmcwHQYDVR0lBBYwFAYIKwYBBQUH
AwEGCCsGAQUFBwMCMDUGA1UdEgQuMCyBEnN1cHBvcnRAZGNhY2hlLm9yZ4YWaHR0
cDovL3d3dy5kY2FjaGUub3JnLzARBgNVHSAECjAIMAYGBFUdIAAwDQYJKoZIhvcN
AQELBQADggEBABeLvlfqBbJMYZxV5hzzQ/ojLEp2iWFXDxMZD5jsSIsIHyVYOzJv
RF6uM/aRRaW9BBKpCzZlZ9KPpro2hBeKDal1tiij10anvw94cgkA+TmvYlkGzzDB
znFUPmcymtgLnMHekAvGqMUE2Z3f6N95CjyZm0Gntp0lPIAtD5A4r+McyG2GnqaS
B38ncvFZewOtgQDHvDaM45d9zsCI7uoPIbKO+qOGTY32Ksau6fQjAUpKkAxue1kr
6M7z/zIHwnaXRV+FEcNe0zhxp4TiZXZ8v/0UlsWhEHQvrvwnxGXDHz/WWL4Id3OY
Q/CZHqkFxpnZ+IKZ6WL4uOWY6nWU97x4AYQ=
-----END CERTIFICATE-----
