Certificate:
    Data:
        Version: 3 (0x2)
        Serial Number: 2 (0x2)
    Signature Algorithm: sha256WithRSAEncryption
        Issuer: DC=org, DC=dCache, CN=disposable-CA
        Validity
            Not Before: May  3 14:51:17 2016 GMT
            Not After : May  3 14:51:17 2017 GMT
        Subject: DC=org, DC=dCache, CN=Bernd das Brot
        Subject Public Key Info:
            Public Key Algorithm: rsaEncryption
                Public-Key: (2048 bit)
                Modulus:
                    00:d3:22:4e:a4:a6:b5:e5:ea:87:64:fd:53:8c:4e:
                    af:40:68:11:de:dc:f5:9a:76:ad:3a:6f:c1:97:28:
                    00:f8:8f:56:79:3b:77:5b:01:f4:61:12:4b:3a:19:
                    14:34:a7:2d:fc:e5:24:63:85:22:df:91:fe:9e:d5:
                    9d:b0:d7:28:53:34:fe:57:55:b5:f4:10:9b:d1:5f:
                    e6:e9:89:11:0f:29:c2:37:f0:c5:23:6f:fc:88:85:
                    9d:55:b2:57:f8:d0:08:5a:d4:e9:4e:91:da:bd:21:
                    46:eb:b3:85:be:4e:8c:15:08:1d:1a:ce:1f:63:cf:
                    05:4d:08:1f:16:87:13:a5:09:59:6a:f0:f0:f8:b0:
                    cf:0e:e8:b0:2b:30:c8:f5:19:88:2d:4f:41:5d:23:
                    e0:85:67:57:ea:57:b0:98:8a:4d:3d:e7:5a:d6:29:
                    47:8a:30:8c:cf:cd:ba:d6:f2:d4:a9:97:2c:28:57:
                    94:ce:dd:55:42:62:93:c0:49:e5:85:a3:28:2e:38:
                    f6:a0:75:1c:50:81:65:d9:6f:6b:c7:67:59:85:89:
                    e1:cd:27:83:fe:2a:56:bc:91:21:1e:76:55:1f:a2:
                    11:56:31:1f:48:79:e2:42:58:2d:e3:eb:04:42:ea:
                    4e:57:90:af:b2:54:70:7d:13:6b:e0:36:e3:44:a1:
                    ac:a9
                Exponent: 65537 (0x10001)
        X509v3 extensions:
            X509v3 Basic Constraints: critical
                CA:FALSE
            X509v3 Key Usage: critical
                Digital Signature, Key Encipherment, Data Encipherment
            Netscape Comment: 
                dCache.org disposable CA generated user certificate
            X509v3 Subject Key Identifier: 
                82:C4:23:92:E1:A1:FC:91:44:EB:37:00:02:E8:2F:96:10:96:A8:7B
            X509v3 Authority Key Identifier: 
                keyid:1F:EC:CC:2B:94:67:D0:C2:1A:13:BE:04:C2:BE:A2:6C:68:FF:FD:7F

            X509v3 Subject Alternative Name: 
                email:support@dcache.org
            X509v3 Extended Key Usage: 
                TLS Web Server Authentication, TLS Web Client Authentication
            X509v3 Issuer Alternative Name: 
                email:support@dcache.org, URI:http://www.dcache.org/
            X509v3 Certificate Policies: 
                Policy: X509v3 Any Policy

    Signature Algorithm: sha256WithRSAEncryption
         48:be:d3:d1:8d:41:0d:af:67:4f:be:54:80:6d:9d:f2:68:1d:
         6c:da:31:e9:03:cb:ef:4c:52:b7:56:af:0d:39:68:cf:68:b8:
         55:13:31:42:ae:1f:01:7f:ee:2b:ce:c7:37:73:a1:7b:03:1d:
         3d:cc:21:27:8b:55:4c:d2:70:af:0d:d9:9b:69:4b:db:86:0c:
         07:be:00:ed:e1:7d:8a:35:5e:98:d2:a1:d1:86:58:cc:74:d2:
         51:ca:cd:55:ef:8a:1a:31:77:60:15:3d:03:d6:ee:e0:be:2f:
         07:ba:9c:1e:af:97:e2:f5:44:81:f9:7a:de:c4:57:d8:c7:44:
         8b:9f:7c:95:01:85:0f:b7:f5:41:c9:d8:60:b3:3b:72:00:88:
         2f:b9:e7:62:d1:bb:f5:fa:c0:58:bd:b4:42:9a:0a:85:60:68:
         f0:e6:65:95:8c:79:fa:23:ef:1c:27:d4:3f:fe:9c:99:e6:9d:
         33:72:ba:94:e6:0b:11:fd:fd:46:95:18:53:15:db:40:91:45:
         36:3b:96:c3:38:d3:f7:64:dc:aa:18:f5:f5:41:c6:1a:f8:ca:
         ef:96:63:53:28:37:a5:39:be:69:2d:65:91:5e:a0:25:fb:a0:
         ab:12:b3:2e:23:7c:cf:40:74:87:83:16:42:e3:dc:6b:90:72:
         96:35:9d:42
-----BEGIN CERTIFICATE-----
MIIENjCCAx6gAwIBAgIBAjANBgkqhkiG9w0BAQsFADBFMRMwEQYKCZImiZPyLGQB
GRYDb3JnMRYwFAYKCZImiZPyLGQBGRYGZENhY2hlMRYwFAYDVQQDDA1kaXNwb3Nh
YmxlLUNBMB4XDTE2MDUwMzE0NTExN1oXDTE3MDUwMzE0NTExN1owRjETMBEGCgmS
JomT8ixkARkWA29yZzEWMBQGCgmSJomT8ixkARkWBmRDYWNoZTEXMBUGA1UEAwwO
QmVybmQgZGFzIEJyb3QwggEiMA0GCSqGSIb3DQEBAQUAA4IBDwAwggEKAoIBAQDT
Ik6kprXl6odk/VOMTq9AaBHe3PWadq06b8GXKAD4j1Z5O3dbAfRhEks6GRQ0py38
5SRjhSLfkf6e1Z2w1yhTNP5XVbX0EJvRX+bpiREPKcI38MUjb/yIhZ1Vslf40Aha
1OlOkdq9IUbrs4W+TowVCB0azh9jzwVNCB8WhxOlCVlq8PD4sM8O6LArMMj1GYgt
T0FdI+CFZ1fqV7CYik0951rWKUeKMIzPzbrW8tSplywoV5TO3VVCYpPASeWFoygu
OPagdRxQgWXZb2vHZ1mFieHNJ4P+Kla8kSEedlUfohFWMR9IeeJCWC3j6wRC6k5X
kK+yVHB9E2vgNuNEoaypAgMBAAGjggEuMIIBKjAMBgNVHRMBAf8EAjAAMA4GA1Ud
DwEB/wQEAwIEsDBCBglghkgBhvhCAQ0ENRYzZENhY2hlLm9yZyBkaXNwb3NhYmxl
IENBIGdlbmVyYXRlZCB1c2VyIGNlcnRpZmljYXRlMB0GA1UdDgQWBBSCxCOS4aH8
kUTrNwAC6C+WEJaoezAfBgNVHSMEGDAWgBQf7MwrlGfQwhoTvgTCvqJsaP/9fzAd
BgNVHREEFjAUgRJzdXBwb3J0QGRjYWNoZS5vcmcwHQYDVR0lBBYwFAYIKwYBBQUH
AwEGCCsGAQUFBwMCMDUGA1UdEgQuMCyBEnN1cHBvcnRAZGNhY2hlLm9yZ4YWaHR0
cDovL3d3dy5kY2FjaGUub3JnLzARBgNVHSAECjAIMAYGBFUdIAAwDQYJKoZIhvcN
AQELBQADggEBAEi+09GNQQ2vZ0++VIBtnfJoHWzaMekDy+9MUrdWrw05aM9ouFUT
MUKuHwF/7ivOxzdzoXsDHT3MISeLVUzScK8N2ZtpS9uGDAe+AO3hfYo1XpjSodGG
WMx00lHKzVXvihoxd2AVPQPW7uC+Lwe6nB6vl+L1RIH5et7EV9jHRIuffJUBhQ+3
9UHJ2GCzO3IAiC+552LRu/X6wFi9tEKaCoVgaPDmZZWMefoj7xwn1D/+nJnmnTNy
upTmCxH9/UaVGFMV20CRRTY7lsM40/dk3KoY9fVBxhr4yu+WY1MoN6U5vmktZZFe
oCX7oKsSsy4jfM9AdIeDFkLj3GuQcpY1nUI=
-----END CERTIFICATE-----
