Certificate:
    Data:
        Version: 3 (0x2)
        Serial Number: 2 (0x2)
    Signature Algorithm: sha256WithRSAEncryption
        Issuer: DC=org, DC=dCache, CN=disposable-CA
        Validity
            Not Before: May  5 15:23:41 2014 GMT
            Not After : May  5 15:23:41 2015 GMT
        Subject: DC=org, DC=dCache, CN=Bernd das Brot
        Subject Public Key Info:
            Public Key Algorithm: rsaEncryption
                Public-Key: (2048 bit)
                Modulus:
                    00:ee:77:b5:81:96:e7:14:c2:fb:8a:a5:ed:07:41:
                    95:8b:5e:73:3f:3f:4b:cd:43:f2:f1:a2:8e:8a:cf:
                    0e:80:c2:15:0e:9e:4e:4f:e1:bb:ad:52:36:03:81:
                    61:39:e6:45:a3:e2:74:9f:45:dd:33:b4:c7:ae:b6:
                    b4:09:d7:26:59:9a:75:08:01:79:b6:a7:da:93:c0:
                    e5:cd:36:1a:2a:3e:4d:1a:01:36:9d:9a:da:19:9b:
                    0c:01:f9:54:52:76:a5:c8:6c:f5:b4:8d:6c:9b:5c:
                    ab:61:9f:f5:c0:0e:8c:e4:18:9a:86:b9:0d:a0:b8:
                    55:14:57:df:00:0c:7f:97:17:e4:d7:61:57:35:8e:
                    d7:76:79:0b:46:d1:3a:23:4c:af:4a:4d:2a:49:4f:
                    8b:24:71:52:73:1f:6f:41:75:49:1d:7b:a5:68:b1:
                    5c:58:68:e8:39:69:54:6d:29:e2:46:f8:f1:dd:1f:
                    a2:c4:e3:86:4f:7a:78:db:37:7c:5d:fc:e5:6a:8a:
                    aa:da:47:b8:9b:52:4e:09:c3:2e:b8:2d:4e:15:52:
                    03:5c:d6:85:da:43:35:13:af:61:b1:fe:5c:a7:8d:
                    30:d6:f0:81:65:55:0a:a4:57:cb:84:f3:da:5f:78:
                    5f:ad:a4:d9:ed:8e:56:4d:84:6c:1f:00:ed:f7:f4:
                    6c:1b
                Exponent: 65537 (0x10001)
        X509v3 extensions:
            X509v3 Basic Constraints: critical
                CA:FALSE
            X509v3 Key Usage: critical
                Digital Signature, Key Encipherment, Data Encipherment
            Netscape Comment: 
                dCache.org disposable CA generated user certificate
            X509v3 Subject Key Identifier: 
                54:D4:21:26:61:34:05:3C:28:03:92:9A:B6:2B:E1:D8:EF:DF:8C:2C
            X509v3 Authority Key Identifier: 
                keyid:83:45:28:F7:9F:25:14:59:14:2E:87:3E:F9:73:4A:79:B3:7D:5C:64

            X509v3 Subject Alternative Name: 
                email:bernd@example.org
            X509v3 Extended Key Usage: 
                TLS Web Server Authentication, TLS Web Client Authentication
            X509v3 Issuer Alternative Name: 
                email:support@dcache.org, URI:http://www.dcache.org/
            X509v3 Certificate Policies: 
                Policy: X509v3 Any Policy

    Signature Algorithm: sha256WithRSAEncryption
         69:77:3e:bc:d8:6c:e4:37:ed:21:8c:46:1c:18:58:3b:7a:6f:
         07:25:37:7c:e6:57:8e:c4:e9:21:b0:9c:ec:29:48:91:a6:58:
         78:09:09:8a:55:94:48:a4:37:20:fa:c4:49:80:d8:63:5c:d3:
         10:ce:5d:6f:7e:f9:30:49:f3:22:8b:93:e6:e3:46:81:ce:7b:
         0c:56:50:42:3d:f3:2f:17:63:2c:5b:36:ea:97:6d:86:10:7c:
         6c:81:24:16:4c:d9:cc:26:87:27:9d:e6:fe:8d:07:98:e9:bf:
         e7:92:56:aa:a3:38:98:e9:22:8b:98:3c:35:5f:4c:5a:0b:84:
         fa:4c:35:37:0b:85:ae:1f:85:a0:41:ba:ed:4b:4a:6a:e2:2c:
         3c:f4:ea:1e:d0:a0:ac:95:c0:7f:78:5a:49:d3:23:5f:5a:90:
         bf:33:2d:0e:03:40:e8:93:7f:fa:fc:ce:d5:65:c0:0d:f5:2d:
         b8:07:a1:e3:0d:30:48:e0:74:c0:77:ee:d3:7a:9f:b6:07:36:
         20:94:4e:15:59:86:b4:9e:96:62:9b:95:80:6f:8b:79:a9:3d:
         f0:f4:26:40:dd:37:54:44:19:35:f7:87:ef:0b:8b:b5:58:a5:
         f4:94:dc:60:90:42:c2:3e:1f:91:70:63:36:19:b2:82:bf:c6:
         23:2f:a0:5d
-----BEGIN CERTIFICATE-----
MIIENTCCAx2gAwIBAgIBAjANBgkqhkiG9w0BAQsFADBFMRMwEQYKCZImiZPyLGQB
GRYDb3JnMRYwFAYKCZImiZPyLGQBGRYGZENhY2hlMRYwFAYDVQQDEw1kaXNwb3Nh
YmxlLUNBMB4XDTE0MDUwNTE1MjM0MVoXDTE1MDUwNTE1MjM0MVowRjETMBEGCgmS
JomT8ixkARkWA29yZzEWMBQGCgmSJomT8ixkARkWBmRDYWNoZTEXMBUGA1UEAxMO
QmVybmQgZGFzIEJyb3QwggEiMA0GCSqGSIb3DQEBAQUAA4IBDwAwggEKAoIBAQDu
d7WBlucUwvuKpe0HQZWLXnM/P0vNQ/Lxoo6Kzw6AwhUOnk5P4butUjYDgWE55kWj
4nSfRd0ztMeutrQJ1yZZmnUIAXm2p9qTwOXNNhoqPk0aATadmtoZmwwB+VRSdqXI
bPW0jWybXKthn/XADozkGJqGuQ2guFUUV98ADH+XF+TXYVc1jtd2eQtG0TojTK9K
TSpJT4skcVJzH29BdUkde6VosVxYaOg5aVRtKeJG+PHdH6LE44ZPenjbN3xd/OVq
iqraR7ibUk4Jwy64LU4VUgNc1oXaQzUTr2Gx/lynjTDW8IFlVQqkV8uE89pfeF+t
pNntjlZNhGwfAO339GwbAgMBAAGjggEtMIIBKTAMBgNVHRMBAf8EAjAAMA4GA1Ud
DwEB/wQEAwIEsDBCBglghkgBhvhCAQ0ENRYzZENhY2hlLm9yZyBkaXNwb3NhYmxl
IENBIGdlbmVyYXRlZCB1c2VyIGNlcnRpZmljYXRlMB0GA1UdDgQWBBRU1CEmYTQF
PCgDkpq2K+HY79+MLDAfBgNVHSMEGDAWgBSDRSj3nyUUWRQuhz75c0p5s31cZDAc
BgNVHREEFTATgRFiZXJuZEBleGFtcGxlLm9yZzAdBgNVHSUEFjAUBggrBgEFBQcD
AQYIKwYBBQUHAwIwNQYDVR0SBC4wLIESc3VwcG9ydEBkY2FjaGUub3JnhhZodHRw
Oi8vd3d3LmRjYWNoZS5vcmcvMBEGA1UdIAQKMAgwBgYEVR0gADANBgkqhkiG9w0B
AQsFAAOCAQEAaXc+vNhs5DftIYxGHBhYO3pvByU3fOZXjsTpIbCc7ClIkaZYeAkJ
ilWUSKQ3IPrESYDYY1zTEM5db375MEnzIouT5uNGgc57DFZQQj3zLxdjLFs26pdt
hhB8bIEkFkzZzCaHJ53m/o0HmOm/55JWqqM4mOkii5g8NV9MWguE+kw1NwuFrh+F
oEG67UtKauIsPPTqHtCgrJXAf3haSdMjX1qQvzMtDgNA6JN/+vzO1WXADfUtuAeh
4w0wSOB0wHfu03qftgc2IJROFVmGtJ6WYpuVgG+Leak98PQmQN03VEQZNfeH7wuL
tVil9JTcYJBCwj4fkXBjNhmygr/GIy+gXQ==
-----END CERTIFICATE-----
