Certificate:
    Data:
        Version: 3 (0x2)
        Serial Number: 2 (0x2)
    Signature Algorithm: sha256WithRSAEncryption
        Issuer: DC=org, DC=dCache, CN=Disposable CA 2017-05-05 13:18:48
        Validity
            Not Before: May  5 11:18:48 2017 GMT
            Not After : May  5 11:18:48 2018 GMT
        Subject: DC=org, DC=dCache, CN=Paul Millar
        Subject Public Key Info:
            Public Key Algorithm: rsaEncryption
                Public-Key: (2048 bit)
                Modulus:
                    00:ce:2e:79:75:de:3e:c5:e0:b5:cb:59:4f:64:e0:
                    46:1a:c4:73:d6:de:a2:7d:b0:0a:55:1f:6e:92:24:
                    3d:7b:b5:93:2c:1d:78:19:b4:4a:20:0c:b6:22:fd:
                    75:2e:f6:d9:fc:6e:e2:8f:72:20:e4:ae:f0:b8:ce:
                    95:dc:c1:bf:02:cc:15:f5:eb:1b:d7:4d:ec:df:ba:
                    5d:16:3e:81:97:f6:3f:80:34:05:9d:3c:1e:09:bc:
                    03:12:23:fd:5e:77:cb:d1:2a:aa:97:31:12:56:00:
                    1b:e6:01:35:12:fb:ea:78:1a:74:a8:1a:74:ed:68:
                    70:22:22:67:5f:1e:d8:a8:19:8a:e4:7c:9f:ea:ca:
                    65:fb:20:af:a1:11:b0:61:e7:b1:6f:d2:a2:e8:3a:
                    5c:f0:61:12:2e:87:96:9d:82:93:27:e9:12:f1:33:
                    ca:0a:5c:04:bc:9e:3c:72:8a:e5:68:1a:11:93:be:
                    41:c8:31:2e:b5:2c:cf:f3:80:68:65:8e:ca:96:71:
                    d7:01:e3:9c:65:13:08:bd:89:e0:ca:3e:f9:28:24:
                    cd:ac:62:1b:bc:ee:55:8b:74:66:b2:49:79:50:08:
                    81:d2:17:42:91:47:14:87:13:fb:3c:c9:00:56:09:
                    d1:bd:dd:7d:b6:49:80:56:6a:84:7f:1c:3f:9d:4c:
                    2f:13
                Exponent: 65537 (0x10001)
        X509v3 extensions:
            X509v3 Basic Constraints: critical
                CA:FALSE
            X509v3 Key Usage: critical
                Digital Signature, Key Encipherment, Data Encipherment
            Netscape Comment: 
                dCache.org disposable CA generated user certificate
            X509v3 Subject Key Identifier: 
                AE:5B:F8:7E:E5:DB:54:23:F2:ED:D8:26:3C:A3:95:5D:CD:0A:76:8B
            X509v3 Authority Key Identifier: 
                keyid:48:8D:47:2E:39:60:67:66:07:4E:7F:25:32:25:B5:05:9C:BB:76:2A

            X509v3 Subject Alternative Name: 
                email:paul.millar@desy.de
            X509v3 Extended Key Usage: 
                TLS Web Server Authentication, TLS Web Client Authentication
            X509v3 Issuer Alternative Name: 
                email:support@dcache.org, URI:http://www.dcache.org/
            X509v3 Certificate Policies: 
                Policy: X509v3 Any Policy

    Signature Algorithm: sha256WithRSAEncryption
         59:dd:2a:b6:87:8d:16:38:52:12:9b:2f:57:9a:a5:81:56:9b:
         bd:f4:86:ce:9f:4d:99:b4:68:cc:e2:62:a3:7a:d6:6a:ba:0b:
         51:07:2b:df:4f:9c:aa:32:ac:4c:43:b0:23:b5:2f:20:76:a0:
         07:b3:d7:47:1a:ae:1a:9f:39:50:d2:87:fe:c4:a7:15:1e:04:
         c7:be:02:0f:e1:0d:8a:49:3f:5f:72:82:20:3b:e8:4a:28:ab:
         0f:71:26:b2:0f:55:e4:63:6c:ea:01:11:7d:54:2c:a2:53:03:
         f3:5b:4d:f2:66:d3:dd:57:0c:67:2f:75:2a:16:5e:4a:59:6c:
         4f:fe:a1:bc:0d:d9:9c:37:a7:41:7f:d3:e9:c9:97:ed:86:30:
         71:83:b9:6d:45:f1:7b:99:28:ed:86:50:52:8f:79:04:56:b1:
         04:90:86:56:6c:0b:b7:10:b2:09:26:0b:54:a6:60:78:9e:44:
         7a:e4:16:88:43:f0:60:b8:4e:a1:c5:47:b4:e9:ab:82:07:d4:
         84:ab:df:79:8c:73:9f:3d:b6:ee:11:dd:34:0d:02:86:a9:f9:
         d3:5a:e7:d3:03:ae:e7:ed:3e:b2:a2:61:90:8e:e1:3f:98:60:
         c3:ff:d2:77:b3:d8:c6:ed:e3:d3:24:bf:82:db:02:97:fc:17:
         37:05:e2:ca
-----BEGIN CERTIFICATE-----
MIIESDCCAzCgAwIBAgIBAjANBgkqhkiG9w0BAQsFADBZMRMwEQYKCZImiZPyLGQB
GRYDb3JnMRYwFAYKCZImiZPyLGQBGRYGZENhY2hlMSowKAYDVQQDDCFEaXNwb3Nh
YmxlIENBIDIwMTctMDUtMDUgMTM6MTg6NDgwHhcNMTcwNTA1MTExODQ4WhcNMTgw
NTA1MTExODQ4WjBDMRMwEQYKCZImiZPyLGQBGRYDb3JnMRYwFAYKCZImiZPyLGQB
GRYGZENhY2hlMRQwEgYDVQQDDAtQYXVsIE1pbGxhcjCCASIwDQYJKoZIhvcNAQEB
BQADggEPADCCAQoCggEBAM4ueXXePsXgtctZT2TgRhrEc9beon2wClUfbpIkPXu1
kywdeBm0SiAMtiL9dS722fxu4o9yIOSu8LjOldzBvwLMFfXrG9dN7N+6XRY+gZf2
P4A0BZ08Hgm8AxIj/V53y9EqqpcxElYAG+YBNRL76ngadKgadO1ocCIiZ18e2KgZ
iuR8n+rKZfsgr6ERsGHnsW/Soug6XPBhEi6Hlp2CkyfpEvEzygpcBLyePHKK5Wga
EZO+QcgxLrUsz/OAaGWOypZx1wHjnGUTCL2J4Mo++SgkzaxiG7zuVYt0ZrJJeVAI
gdIXQpFHFIcT+zzJAFYJ0b3dfbZJgFZqhH8cP51MLxMCAwEAAaOCAS8wggErMAwG
A1UdEwEB/wQCMAAwDgYDVR0PAQH/BAQDAgSwMEIGCWCGSAGG+EIBDQQ1FjNkQ2Fj
aGUub3JnIGRpc3Bvc2FibGUgQ0EgZ2VuZXJhdGVkIHVzZXIgY2VydGlmaWNhdGUw
HQYDVR0OBBYEFK5b+H7l21Qj8u3YJjyjlV3NCnaLMB8GA1UdIwQYMBaAFEiNRy45
YGdmB05/JTIltQWcu3YqMB4GA1UdEQQXMBWBE3BhdWwubWlsbGFyQGRlc3kuZGUw
HQYDVR0lBBYwFAYIKwYBBQUHAwEGCCsGAQUFBwMCMDUGA1UdEgQuMCyBEnN1cHBv
cnRAZGNhY2hlLm9yZ4YWaHR0cDovL3d3dy5kY2FjaGUub3JnLzARBgNVHSAECjAI
MAYGBFUdIAAwDQYJKoZIhvcNAQELBQADggEBAFndKraHjRY4UhKbL1eapYFWm730
hs6fTZm0aMziYqN61mq6C1EHK99PnKoyrExDsCO1LyB2oAez10carhqfOVDSh/7E
pxUeBMe+Ag/hDYpJP19ygiA76Eooqw9xJrIPVeRjbOoBEX1ULKJTA/NbTfJm091X
DGcvdSoWXkpZbE/+obwN2Zw3p0F/0+nJl+2GMHGDuW1F8XuZKO2GUFKPeQRWsQSQ
hlZsC7cQsgkmC1SmYHieRHrkFohD8GC4TqHFR7Tpq4IH1ISr33mMc589tu4R3TQN
Aoap+dNa59MDruftPrKiYZCO4T+YYMP/0nez2Mbt49Mkv4LbApf8FzcF4so=
-----END CERTIFICATE-----
