Certificate:
    Data:
        Version: 3 (0x2)
        Serial Number: 1 (0x1)
    Signature Algorithm: sha256WithRSAEncryption
        Issuer: DC=org, DC=dCache, CN=disposable-CA
        Validity
            Not Before: May  3 14:51:16 2016 GMT
            Not After : May  3 14:51:16 2017 GMT
        Subject: DC=org, DC=dCache, CN=host/localhost
        Subject Public Key Info:
            Public Key Algorithm: rsaEncryption
                Public-Key: (2048 bit)
                Modulus:
                    00:cb:42:71:5d:b1:77:d9:b7:ec:29:a1:8b:3e:c6:
                    6f:41:29:86:d8:3e:54:51:a5:70:55:4a:bd:93:cb:
                    95:b2:03:3e:3a:42:94:b3:ca:59:03:86:81:f4:3a:
                    f9:b9:57:52:fb:26:4f:d8:cc:a9:79:ca:19:e6:ee:
                    98:08:72:ce:ef:fe:0d:48:3e:34:39:49:e0:ac:1b:
                    23:d6:55:97:1a:c8:16:74:c4:10:e8:79:75:ce:6e:
                    ce:51:0f:81:fc:c3:94:50:dd:30:d5:8c:12:d2:77:
                    58:83:d3:33:67:ce:cd:13:d5:c7:a3:4b:6f:65:5f:
                    7c:bd:77:c5:93:6e:9c:03:55:2b:7d:e7:2a:62:f2:
                    d6:3e:bd:3c:c9:cd:16:09:f7:21:9f:a0:af:c5:46:
                    69:b7:2b:cf:c3:c2:2f:36:65:04:c5:9a:4a:92:84:
                    34:8e:82:77:7f:19:6a:be:67:05:c7:f6:5f:65:c8:
                    59:f2:69:c1:fc:3b:33:a0:40:24:87:b3:b6:85:02:
                    d0:db:f6:34:46:ae:a2:3a:9a:15:7c:3e:63:51:05:
                    47:f1:d1:fe:f1:ea:a6:94:83:35:f1:1d:ca:30:2b:
                    b3:ab:d4:7b:1e:2f:b6:70:23:a2:3b:84:81:18:a4:
                    d0:dc:c5:96:01:67:33:4c:62:59:ed:a9:d1:5c:42:
                    df:c9
                Exponent: 65537 (0x10001)
        X509v3 extensions:
            X509v3 Basic Constraints: critical
                CA:FALSE
            X509v3 Key Usage: critical
                Digital Signature, Key Encipherment, Data Encipherment
            Netscape Comment: 
                dCache.org disposable CA generated host certificate
            X509v3 Subject Key Identifier: 
                71:A6:3F:0B:06:33:A5:AA:3F:DC:AC:D4:A2:37:A7:2D:A0:0B:5B:74
            X509v3 Authority Key Identifier: 
                keyid:1F:EC:CC:2B:94:67:D0:C2:1A:13:BE:04:C2:BE:A2:6C:68:FF:FD:7F

            X509v3 Subject Alternative Name: 
                DNS:localhost
            X509v3 Extended Key Usage: 
                TLS Web Server Authentication, TLS Web Client Authentication
            X509v3 Issuer Alternative Name: 
                email:support@dcache.org, URI:http://www.dcache.org/
            X509v3 Certificate Policies: 
                Policy: X509v3 Any Policy

    Signature Algorithm: sha256WithRSAEncryption
         9a:94:ab:77:a4:7e:2f:8c:68:e4:f4:88:66:21:86:25:ba:fd:
         1e:06:0d:97:9b:08:b0:39:dd:d8:7a:65:fc:2e:aa:41:ad:57:
         54:46:6c:e9:65:c9:31:ae:a0:05:56:d4:e7:9b:43:ff:ab:1f:
         2b:e1:7c:42:53:18:f5:34:0e:46:22:cb:79:4f:cd:99:bd:08:
         40:2b:b1:df:07:75:cc:73:55:cf:9a:19:ca:aa:8c:19:5d:ec:
         17:01:49:34:ca:2e:be:c8:ba:4a:16:4e:8f:66:d7:32:45:1b:
         5c:39:5f:b0:c1:3f:e4:84:f3:0b:68:61:d5:6d:14:d0:ed:23:
         c8:25:95:3b:fa:1d:f8:d4:d3:4f:79:19:5f:3c:92:5d:fe:9f:
         62:56:35:11:eb:7c:37:09:a8:74:55:d7:5e:c0:7e:fb:42:46:
         91:dc:fe:7b:64:75:e5:ec:6f:86:45:fa:a2:c3:c2:f1:52:ac:
         73:3c:87:0b:17:e3:12:28:1c:a5:99:3b:f5:2b:f4:8c:d5:3c:
         8a:28:d6:0d:d9:c0:35:e4:aa:e1:ad:91:fe:04:d4:29:b6:ed:
         f7:9c:13:58:9c:24:78:b7:ca:56:82:51:e8:f4:fe:af:b1:78:
         c2:e0:f6:be:4e:de:1a:59:cc:7a:16:12:a9:be:66:2d:31:ae:
         76:04:4b:5e
-----BEGIN CERTIFICATE-----
MIIELTCCAxWgAwIBAgIBATANBgkqhkiG9w0BAQsFADBFMRMwEQYKCZImiZPyLGQB
GRYDb3JnMRYwFAYKCZImiZPyLGQBGRYGZENhY2hlMRYwFAYDVQQDDA1kaXNwb3Nh
YmxlLUNBMB4XDTE2MDUwMzE0NTExNloXDTE3MDUwMzE0NTExNlowRjETMBEGCgmS
JomT8ixkARkWA29yZzEWMBQGCgmSJomT8ixkARkWBmRDYWNoZTEXMBUGA1UEAwwO
aG9zdC9sb2NhbGhvc3QwggEiMA0GCSqGSIb3DQEBAQUAA4IBDwAwggEKAoIBAQDL
QnFdsXfZt+wpoYs+xm9BKYbYPlRRpXBVSr2Ty5WyAz46QpSzylkDhoH0Ovm5V1L7
Jk/YzKl5yhnm7pgIcs7v/g1IPjQ5SeCsGyPWVZcayBZ0xBDoeXXObs5RD4H8w5RQ
3TDVjBLSd1iD0zNnzs0T1cejS29lX3y9d8WTbpwDVSt95ypi8tY+vTzJzRYJ9yGf
oK/FRmm3K8/Dwi82ZQTFmkqShDSOgnd/GWq+ZwXH9l9lyFnyacH8OzOgQCSHs7aF
AtDb9jRGrqI6mhV8PmNRBUfx0f7x6qaUgzXxHcowK7Or1HseL7ZwI6I7hIEYpNDc
xZYBZzNMYlntqdFcQt/JAgMBAAGjggElMIIBITAMBgNVHRMBAf8EAjAAMA4GA1Ud
DwEB/wQEAwIEsDBCBglghkgBhvhCAQ0ENRYzZENhY2hlLm9yZyBkaXNwb3NhYmxl
IENBIGdlbmVyYXRlZCBob3N0IGNlcnRpZmljYXRlMB0GA1UdDgQWBBRxpj8LBjOl
qj/crNSiN6ctoAtbdDAfBgNVHSMEGDAWgBQf7MwrlGfQwhoTvgTCvqJsaP/9fzAU
BgNVHREEDTALgglsb2NhbGhvc3QwHQYDVR0lBBYwFAYIKwYBBQUHAwEGCCsGAQUF
BwMCMDUGA1UdEgQuMCyBEnN1cHBvcnRAZGNhY2hlLm9yZ4YWaHR0cDovL3d3dy5k
Y2FjaGUub3JnLzARBgNVHSAECjAIMAYGBFUdIAAwDQYJKoZIhvcNAQELBQADggEB
AJqUq3ekfi+MaOT0iGYhhiW6/R4GDZebCLA53dh6ZfwuqkGtV1RGbOllyTGuoAVW
1OebQ/+rHyvhfEJTGPU0DkYiy3lPzZm9CEArsd8HdcxzVc+aGcqqjBld7BcBSTTK
Lr7IukoWTo9m1zJFG1w5X7DBP+SE8wtoYdVtFNDtI8gllTv6HfjU0095GV88kl3+
n2JWNRHrfDcJqHRV117AfvtCRpHc/ntkdeXsb4ZF+qLDwvFSrHM8hwsX4xIoHKWZ
O/Ur9IzVPIoo1g3ZwDXkquGtkf4E1Cm27fecE1icJHi3ylaCUej0/q+xeMLg9r5O
3hpZzHoWEqm+Zi0xrnYES14=
-----END CERTIFICATE-----
