Certificate:
    Data:
        Version: 3 (0x2)
        Serial Number: 1 (0x1)
    Signature Algorithm: sha256WithRSAEncryption
        Issuer: DC=org, DC=dCache, CN=disposable-CA
        Validity
            Not Before: May  5 10:40:15 2015 GMT
            Not After : May  4 10:40:15 2016 GMT
        Subject: DC=org, DC=dCache, CN=host/localhost
        Subject Public Key Info:
            Public Key Algorithm: rsaEncryption
                Public-Key: (2048 bit)
                Modulus:
                    00:b4:40:1d:05:04:fd:86:6f:1c:9c:c3:3b:e3:bf:
                    8c:ca:2d:e1:9e:0d:fc:2c:13:2f:ea:77:3f:28:a3:
                    3d:a0:b0:c4:7d:07:c7:51:07:99:24:f5:f9:d6:65:
                    6c:8f:02:5f:e2:bb:4e:98:33:6a:59:52:c9:9c:78:
                    91:4e:4f:be:9b:97:49:51:f0:e2:b0:71:2f:e1:3c:
                    14:f3:12:09:0d:f9:41:40:7b:3a:f2:49:36:b1:fb:
                    f3:5a:5d:e2:d2:90:f0:fb:3c:b6:aa:62:60:cc:79:
                    ca:3b:fb:fd:a8:53:49:b7:c8:d3:e3:ef:73:63:94:
                    1e:5d:bf:de:bb:0c:93:c7:b0:93:32:31:e7:d0:d5:
                    f8:25:4f:78:92:61:4f:d6:cf:e1:06:f9:93:da:64:
                    d9:dd:87:86:4b:59:2d:ff:8a:23:2f:28:82:05:98:
                    28:e4:59:49:77:ef:be:94:7f:b7:6e:ff:e2:bd:5f:
                    ce:f8:18:bd:eb:37:ee:84:0b:b8:ff:3d:98:8a:52:
                    45:f1:a0:5b:50:a6:9f:f6:a7:7e:68:e5:a9:a6:db:
                    15:43:d7:5f:35:62:fe:0c:e6:5c:d8:0a:d4:72:a2:
                    5e:51:b1:ff:6e:dc:ad:57:d8:fd:e7:ab:e2:f3:1c:
                    f9:11:d4:f5:fd:4e:a7:15:84:fc:be:c1:25:65:6e:
                    df:19
                Exponent: 65537 (0x10001)
        X509v3 extensions:
            X509v3 Basic Constraints: critical
                CA:FALSE
            X509v3 Key Usage: critical
                Digital Signature, Key Encipherment, Data Encipherment
            Netscape Comment: 
                dCache.org disposable CA generated host certificate
            X509v3 Subject Key Identifier: 
                77:4B:9E:C8:A4:2A:DC:01:75:67:D6:98:CA:24:08:BD:D4:F4:EE:C6
            X509v3 Authority Key Identifier: 
                keyid:CA:C3:10:A7:21:C0:C3:11:2B:BD:9B:D9:03:56:15:EB:59:42:E9:68

            X509v3 Subject Alternative Name: 
                DNS:localhost
            X509v3 Extended Key Usage: 
                TLS Web Server Authentication, TLS Web Client Authentication
            X509v3 Issuer Alternative Name: 
                email:support@dcache.org, URI:http://www.dcache.org/
            X509v3 Certificate Policies: 
                Policy: X509v3 Any Policy

    Signature Algorithm: sha256WithRSAEncryption
         50:df:68:47:f1:ee:07:5e:00:2d:85:7f:4b:20:36:d1:3c:42:
         b4:c1:d0:cd:92:7a:b0:4c:51:ad:3a:1f:71:6b:f5:21:18:b3:
         0f:02:32:72:87:c4:29:3e:47:d6:c6:b6:91:0a:b2:81:af:f6:
         76:62:ba:84:8b:63:df:c5:d3:0f:bd:83:1d:1d:7e:41:2c:0a:
         1f:f9:f6:20:de:94:c6:ab:ba:a8:33:ee:00:35:4f:38:4f:6b:
         58:2f:3d:2d:54:00:d6:ef:ef:ab:1f:18:9d:b6:8b:b5:ee:37:
         18:35:2b:8b:22:60:26:bd:51:f4:9c:c6:92:bd:4c:38:c8:5d:
         c9:95:2d:03:00:79:6e:55:17:52:81:95:65:76:a2:4f:6d:c2:
         f7:d4:d5:39:ae:34:8c:8b:25:5e:54:06:ba:83:b5:99:08:90:
         c9:db:1a:df:e2:4b:51:4c:e2:be:96:cf:f8:b3:08:86:fb:ba:
         1f:64:04:c0:32:4b:0a:95:6f:eb:9a:2c:c3:90:1b:95:ff:26:
         7e:0c:2c:d4:1f:e9:e1:b4:43:5a:74:af:97:a7:c0:e2:4e:ba:
         e5:79:31:d7:78:6d:1c:66:8c:d5:76:ec:3d:63:db:75:d2:e8:
         fc:77:3c:4d:35:3d:79:f1:07:78:26:e3:cc:bf:6f:46:71:82:
         ee:e8:df:e1
-----BEGIN CERTIFICATE-----
MIIELTCCAxWgAwIBAgIBATANBgkqhkiG9w0BAQsFADBFMRMwEQYKCZImiZPyLGQB
GRYDb3JnMRYwFAYKCZImiZPyLGQBGRYGZENhY2hlMRYwFAYDVQQDDA1kaXNwb3Nh
YmxlLUNBMB4XDTE1MDUwNTEwNDAxNVoXDTE2MDUwNDEwNDAxNVowRjETMBEGCgmS
JomT8ixkARkWA29yZzEWMBQGCgmSJomT8ixkARkWBmRDYWNoZTEXMBUGA1UEAwwO
aG9zdC9sb2NhbGhvc3QwggEiMA0GCSqGSIb3DQEBAQUAA4IBDwAwggEKAoIBAQC0
QB0FBP2Gbxycwzvjv4zKLeGeDfwsEy/qdz8ooz2gsMR9B8dRB5kk9fnWZWyPAl/i
u06YM2pZUsmceJFOT76bl0lR8OKwcS/hPBTzEgkN+UFAezrySTax+/NaXeLSkPD7
PLaqYmDMeco7+/2oU0m3yNPj73NjlB5dv967DJPHsJMyMefQ1fglT3iSYU/Wz+EG
+ZPaZNndh4ZLWS3/iiMvKIIFmCjkWUl3776Uf7du/+K9X874GL3rN+6EC7j/PZiK
UkXxoFtQpp/2p35o5amm2xVD1181Yv4M5lzYCtRyol5Rsf9u3K1X2P3nq+LzHPkR
1PX9TqcVhPy+wSVlbt8ZAgMBAAGjggElMIIBITAMBgNVHRMBAf8EAjAAMA4GA1Ud
DwEB/wQEAwIEsDBCBglghkgBhvhCAQ0ENRYzZENhY2hlLm9yZyBkaXNwb3NhYmxl
IENBIGdlbmVyYXRlZCBob3N0IGNlcnRpZmljYXRlMB0GA1UdDgQWBBR3S57IpCrc
AXVn1pjKJAi91PTuxjAfBgNVHSMEGDAWgBTKwxCnIcDDESu9m9kDVhXrWULpaDAU
BgNVHREEDTALgglsb2NhbGhvc3QwHQYDVR0lBBYwFAYIKwYBBQUHAwEGCCsGAQUF
BwMCMDUGA1UdEgQuMCyBEnN1cHBvcnRAZGNhY2hlLm9yZ4YWaHR0cDovL3d3dy5k
Y2FjaGUub3JnLzARBgNVHSAECjAIMAYGBFUdIAAwDQYJKoZIhvcNAQELBQADggEB
AFDfaEfx7gdeAC2Ff0sgNtE8QrTB0M2SerBMUa06H3Fr9SEYsw8CMnKHxCk+R9bG
tpEKsoGv9nZiuoSLY9/F0w+9gx0dfkEsCh/59iDelMaruqgz7gA1TzhPa1gvPS1U
ANbv76sfGJ22i7XuNxg1K4siYCa9UfScxpK9TDjIXcmVLQMAeW5VF1KBlWV2ok9t
wvfU1TmuNIyLJV5UBrqDtZkIkMnbGt/iS1FM4r6Wz/izCIb7uh9kBMAySwqVb+ua
LMOQG5X/Jn4MLNQf6eG0Q1p0r5enwOJOuuV5Mdd4bRxmjNV27D1j23XS6Px3PE01
PXnxB3gm48y/b0Zxgu7o3+E=
-----END CERTIFICATE-----
