Certificate:
    Data:
        Version: 3 (0x2)
        Serial Number: 1 (0x1)
    Signature Algorithm: sha256WithRSAEncryption
        Issuer: DC=org, DC=dCache, CN=Disposable CA 2017-05-05 13:18:48
        Validity
            Not Before: May  5 11:18:48 2017 GMT
            Not After : May  5 11:18:48 2018 GMT
        Subject: DC=org, DC=dCache, CN=host/localhost
        Subject Public Key Info:
            Public Key Algorithm: rsaEncryption
                Public-Key: (2048 bit)
                Modulus:
                    00:c6:d0:59:68:35:13:30:6f:38:27:4e:6e:4c:9f:
                    15:43:34:36:91:54:b4:e5:a7:01:bc:19:e5:60:19:
                    77:b1:86:0d:0f:df:94:a0:3a:69:10:53:c7:c4:39:
                    e8:47:65:27:d3:7b:07:c7:8b:45:57:e5:54:bd:af:
                    76:c5:09:d5:cf:b5:be:7c:a1:53:0c:e5:eb:44:c6:
                    7f:2a:a1:d6:e2:e9:30:f1:8c:f8:97:d1:c1:52:23:
                    37:19:87:c4:3c:23:62:75:df:8a:78:1d:eb:7f:e3:
                    62:fa:80:e5:a4:77:2f:44:b2:e5:d5:71:ab:35:dd:
                    78:2d:7d:af:b8:bd:fe:02:ff:17:63:79:d8:0c:47:
                    77:03:89:09:c7:3b:fb:5d:ff:dc:9b:20:62:83:84:
                    d6:69:55:c4:99:9d:cd:27:59:dc:84:9f:9a:b2:89:
                    38:48:89:20:8e:70:80:8c:5e:2f:0f:0a:e1:ad:e5:
                    b6:33:12:89:a2:ef:5c:14:7f:91:07:3d:63:d7:34:
                    22:b4:cf:a5:5c:9b:97:e6:d7:c7:68:3d:60:72:be:
                    12:80:73:aa:bc:05:56:db:eb:6b:8c:3e:a7:30:a0:
                    e8:24:3c:a7:56:7f:1b:51:4e:9c:29:73:5d:fe:5f:
                    f8:33:71:b5:79:5a:50:10:6d:f7:11:c9:b1:92:13:
                    32:75
                Exponent: 65537 (0x10001)
        X509v3 extensions:
            X509v3 Basic Constraints: critical
                CA:FALSE
            X509v3 Key Usage: critical
                Digital Signature, Key Encipherment, Data Encipherment
            Netscape Comment: 
                dCache.org disposable CA generated host certificate
            X509v3 Subject Key Identifier: 
                D6:3C:63:09:54:58:8D:0F:00:F8:E3:3A:F3:A5:0F:BF:6E:0D:AD:45
            X509v3 Authority Key Identifier: 
                keyid:48:8D:47:2E:39:60:67:66:07:4E:7F:25:32:25:B5:05:9C:BB:76:2A

            X509v3 Subject Alternative Name: 
                DNS:localhost
            X509v3 Extended Key Usage: 
                TLS Web Server Authentication, TLS Web Client Authentication
            X509v3 Issuer Alternative Name: 
                email:support@dcache.org, URI:http://www.dcache.org/
            X509v3 Certificate Policies: 
                Policy: X509v3 Any Policy

    Signature Algorithm: sha256WithRSAEncryption
         12:6f:d9:bb:ed:2d:15:01:70:32:d9:5c:ba:1f:05:06:9b:fd:
         9a:c3:2e:43:de:79:eb:e7:b5:c5:49:83:67:c6:03:eb:78:76:
         cb:88:b7:94:a8:7a:b4:ee:10:9b:53:a0:2a:88:9b:06:10:4c:
         b2:81:91:82:e0:43:e7:04:af:0c:e0:0c:55:29:2e:39:75:4b:
         21:b2:e5:c2:15:fe:0a:30:d5:87:7b:d8:83:f6:0e:a4:da:c5:
         1f:79:55:09:a8:bc:4d:0f:55:95:b6:f1:7b:f2:56:56:0b:9c:
         87:59:b8:f3:70:3f:ee:ca:94:c4:a1:ba:d3:ce:d8:6a:96:ce:
         44:ab:01:40:98:a4:28:08:e9:ed:74:78:63:cf:69:b7:ab:6b:
         8d:b6:e9:fc:90:95:27:a1:01:37:2d:06:42:92:b0:c1:08:a6:
         7f:23:57:d4:f8:01:ac:c9:9e:f3:f4:a1:fc:cc:8d:33:43:4e:
         bd:ab:72:b4:b1:d1:d4:91:14:cb:d6:b6:5f:f3:6a:5b:9d:1b:
         fc:d4:ec:28:87:be:78:72:dc:59:b9:b7:a0:1a:cd:ac:81:44:
         70:87:08:ab:01:c3:a4:1a:ce:6e:db:81:3d:44:de:18:f8:39:
         7c:61:30:d0:56:46:ec:3b:86:e0:06:4f:04:56:88:16:8e:53:
         c8:dc:30:ee
-----BEGIN CERTIFICATE-----
MIIEQTCCAymgAwIBAgIBATANBgkqhkiG9w0BAQsFADBZMRMwEQYKCZImiZPyLGQB
GRYDb3JnMRYwFAYKCZImiZPyLGQBGRYGZENhY2hlMSowKAYDVQQDDCFEaXNwb3Nh
YmxlIENBIDIwMTctMDUtMDUgMTM6MTg6NDgwHhcNMTcwNTA1MTExODQ4WhcNMTgw
NTA1MTExODQ4WjBGMRMwEQYKCZImiZPyLGQBGRYDb3JnMRYwFAYKCZImiZPyLGQB
GRYGZENhY2hlMRcwFQYDVQQDDA5ob3N0L2xvY2FsaG9zdDCCASIwDQYJKoZIhvcN
AQEBBQADggEPADCCAQoCggEBAMbQWWg1EzBvOCdObkyfFUM0NpFUtOWnAbwZ5WAZ
d7GGDQ/flKA6aRBTx8Q56EdlJ9N7B8eLRVflVL2vdsUJ1c+1vnyhUwzl60TGfyqh
1uLpMPGM+JfRwVIjNxmHxDwjYnXfingd63/jYvqA5aR3L0Sy5dVxqzXdeC19r7i9
/gL/F2N52AxHdwOJCcc7+13/3JsgYoOE1mlVxJmdzSdZ3ISfmrKJOEiJII5wgIxe
Lw8K4a3ltjMSiaLvXBR/kQc9Y9c0IrTPpVybl+bXx2g9YHK+EoBzqrwFVtvra4w+
pzCg6CQ8p1Z/G1FOnClzXf5f+DNxtXlaUBBt9xHJsZITMnUCAwEAAaOCASUwggEh
MAwGA1UdEwEB/wQCMAAwDgYDVR0PAQH/BAQDAgSwMEIGCWCGSAGG+EIBDQQ1FjNk
Q2FjaGUub3JnIGRpc3Bvc2FibGUgQ0EgZ2VuZXJhdGVkIGhvc3QgY2VydGlmaWNh
dGUwHQYDVR0OBBYEFNY8YwlUWI0PAPjjOvOlD79uDa1FMB8GA1UdIwQYMBaAFEiN
Ry45YGdmB05/JTIltQWcu3YqMBQGA1UdEQQNMAuCCWxvY2FsaG9zdDAdBgNVHSUE
FjAUBggrBgEFBQcDAQYIKwYBBQUHAwIwNQYDVR0SBC4wLIESc3VwcG9ydEBkY2Fj
aGUub3JnhhZodHRwOi8vd3d3LmRjYWNoZS5vcmcvMBEGA1UdIAQKMAgwBgYEVR0g
ADANBgkqhkiG9w0BAQsFAAOCAQEAEm/Zu+0tFQFwMtlcuh8FBpv9msMuQ9556+e1
xUmDZ8YD63h2y4i3lKh6tO4Qm1OgKoibBhBMsoGRguBD5wSvDOAMVSkuOXVLIbLl
whX+CjDVh3vYg/YOpNrFH3lVCai8TQ9Vlbbxe/JWVguch1m483A/7sqUxKG6087Y
apbORKsBQJikKAjp7XR4Y89pt6trjbbp/JCVJ6EBNy0GQpKwwQimfyNX1PgBrMme
8/Sh/MyNM0NOvatytLHR1JEUy9a2X/NqW50b/NTsKIe+eHLcWbm3oBrNrIFEcIcI
qwHDpBrObtuBPUTeGPg5fGEw0FZG7DuG4AZPBFaIFo5TyNww7g==
-----END CERTIFICATE-----
