Certificate:
    Data:
        Version: 3 (0x2)
        Serial Number: 1 (0x1)
    Signature Algorithm: sha256WithRSAEncryption
        Issuer: DC=org, DC=dCache, CN=disposable-CA
        Validity
            Not Before: May  3 13:17:16 2013 GMT
            Not After : May  3 13:17:16 2014 GMT
        Subject: DC=org, DC=dCache, CN=host/localhost
        Subject Public Key Info:
            Public Key Algorithm: rsaEncryption
                Public-Key: (2048 bit)
                Modulus:
                    00:c3:9f:cf:d3:1b:f1:31:38:c8:89:0c:6f:d1:59:
                    69:1c:ce:e3:cf:48:5e:71:02:ee:1c:66:33:fc:67:
                    eb:ec:7a:6f:aa:2b:5d:f8:f6:68:3c:af:45:92:6a:
                    e9:90:6c:1a:0a:23:fc:ca:00:1c:52:fa:4f:f0:60:
                    91:ae:23:9f:02:4d:57:46:a8:b4:9c:b7:b4:75:b2:
                    6d:4c:31:f7:ea:e6:d3:f1:76:1c:5b:9c:6b:0f:05:
                    86:3b:e5:7f:13:4e:c8:e1:5a:08:fc:ca:b9:df:85:
                    77:5d:6e:0f:8d:7d:80:fc:5c:4c:25:cf:ea:be:b5:
                    d4:80:79:96:e0:a7:90:7e:d9:57:9f:c6:16:16:85:
                    fe:ab:18:66:76:52:e3:26:cc:18:f4:29:14:a9:36:
                    3c:79:2c:85:e4:13:d6:44:8b:f7:f5:12:18:9a:78:
                    10:9d:25:da:0a:64:c8:ab:04:87:5f:91:b8:4f:71:
                    53:f5:dd:32:52:44:23:be:b7:b7:b6:12:52:74:27:
                    08:90:03:1a:83:21:d7:d3:c6:f6:17:30:6e:39:2b:
                    db:ba:7b:20:7d:fc:7f:3b:45:4d:2f:7d:1e:99:6c:
                    26:c7:ad:10:a5:bd:c4:0a:bd:78:1d:21:fc:ca:2c:
                    4a:11:52:a1:ac:58:5c:cc:bc:67:b2:a4:1a:50:48:
                    f9:4d
                Exponent: 65537 (0x10001)
        X509v3 extensions:
            X509v3 Basic Constraints: critical
                CA:FALSE
            X509v3 Key Usage: critical
                Digital Signature, Key Encipherment, Data Encipherment
            Netscape Comment: 
                dCache.org disposable CA generated host certificate
            X509v3 Subject Key Identifier: 
                FF:42:96:83:A7:67:BC:E7:15:47:F8:93:D8:08:F7:11:3D:08:9A:7C
            X509v3 Authority Key Identifier: 
                keyid:18:00:0A:A4:45:75:E0:C3:FA:0E:1D:A8:33:53:79:6F:FE:A0:E0:48

            X509v3 Subject Alternative Name: 
                DNS:localhost
            X509v3 Extended Key Usage: 
                TLS Web Server Authentication, TLS Web Client Authentication
            X509v3 Issuer Alternative Name: 
                email:support@dcache.org, URI:http://www.dcache.org/
            X509v3 Certificate Policies: 
                Policy: X509v3 Any Policy

    Signature Algorithm: sha256WithRSAEncryption
         10:94:aa:e5:cd:fc:44:1e:83:7a:98:bd:38:8e:22:c5:20:c0:
         58:c5:3c:75:85:5d:d5:01:ce:4a:06:12:59:27:33:5c:39:9a:
         af:6c:92:e1:99:de:c7:0e:fd:99:9b:51:42:e2:13:a0:92:2b:
         28:32:7c:95:2b:c1:6a:45:84:f3:ff:9d:52:45:b7:25:a3:77:
         c8:dc:d7:b8:94:15:87:e5:bd:50:d7:cd:24:77:a7:04:5a:b5:
         db:12:5d:94:01:11:58:c5:aa:88:83:59:d4:b9:ab:88:bb:3b:
         5c:c2:aa:8b:e6:5e:56:66:3f:a5:7a:2e:3c:11:f9:e1:b9:69:
         e8:5d:b5:49:0a:4c:00:56:ca:45:d9:81:15:28:8c:2b:41:d3:
         07:78:a2:77:5b:ef:32:46:40:60:a6:bd:20:c5:85:db:40:30:
         fd:11:26:f8:48:4f:0d:6e:f1:1e:d0:86:3c:e4:6e:c1:79:71:
         9a:a9:28:db:83:d9:5e:59:2c:c0:5d:c8:10:07:9f:f5:16:65:
         b1:fa:1d:69:30:bc:c3:58:7a:20:32:79:98:71:6a:e3:68:be:
         7b:43:3c:2a:03:25:e9:01:a8:46:fb:19:40:5c:cc:7d:48:fc:
         b6:e2:a3:12:10:fa:c5:f1:33:a6:e1:f6:b1:2e:f7:e2:5c:d7:
         c3:fc:0a:f5
-----BEGIN CERTIFICATE-----
MIIELTCCAxWgAwIBAgIBATANBgkqhkiG9w0BAQsFADBFMRMwEQYKCZImiZPyLGQB
GRYDb3JnMRYwFAYKCZImiZPyLGQBGRYGZENhY2hlMRYwFAYDVQQDEw1kaXNwb3Nh
YmxlLUNBMB4XDTEzMDUwMzEzMTcxNloXDTE0MDUwMzEzMTcxNlowRjETMBEGCgmS
JomT8ixkARkWA29yZzEWMBQGCgmSJomT8ixkARkWBmRDYWNoZTEXMBUGA1UEAxMO
aG9zdC9sb2NhbGhvc3QwggEiMA0GCSqGSIb3DQEBAQUAA4IBDwAwggEKAoIBAQDD
n8/TG/ExOMiJDG/RWWkczuPPSF5xAu4cZjP8Z+vsem+qK1349mg8r0WSaumQbBoK
I/zKABxS+k/wYJGuI58CTVdGqLSct7R1sm1MMffq5tPxdhxbnGsPBYY75X8TTsjh
Wgj8yrnfhXddbg+NfYD8XEwlz+q+tdSAeZbgp5B+2VefxhYWhf6rGGZ2UuMmzBj0
KRSpNjx5LIXkE9ZEi/f1EhiaeBCdJdoKZMirBIdfkbhPcVP13TJSRCO+t7e2ElJ0
JwiQAxqDIdfTxvYXMG45K9u6eyB9/H87RU0vfR6ZbCbHrRClvcQKvXgdIfzKLEoR
UqGsWFzMvGeypBpQSPlNAgMBAAGjggElMIIBITAMBgNVHRMBAf8EAjAAMA4GA1Ud
DwEB/wQEAwIEsDBCBglghkgBhvhCAQ0ENRYzZENhY2hlLm9yZyBkaXNwb3NhYmxl
IENBIGdlbmVyYXRlZCBob3N0IGNlcnRpZmljYXRlMB0GA1UdDgQWBBT/QpaDp2e8
5xVH+JPYCPcRPQiafDAfBgNVHSMEGDAWgBQYAAqkRXXgw/oOHagzU3lv/qDgSDAU
BgNVHREEDTALgglsb2NhbGhvc3QwHQYDVR0lBBYwFAYIKwYBBQUHAwEGCCsGAQUF
BwMCMDUGA1UdEgQuMCyBEnN1cHBvcnRAZGNhY2hlLm9yZ4YWaHR0cDovL3d3dy5k
Y2FjaGUub3JnLzARBgNVHSAECjAIMAYGBFUdIAAwDQYJKoZIhvcNAQELBQADggEB
ABCUquXN/EQeg3qYvTiOIsUgwFjFPHWFXdUBzkoGElknM1w5mq9skuGZ3scO/Zmb
UULiE6CSKygyfJUrwWpFhPP/nVJFtyWjd8jc17iUFYflvVDXzSR3pwRatdsSXZQB
EVjFqoiDWdS5q4i7O1zCqovmXlZmP6V6LjwR+eG5aehdtUkKTABWykXZgRUojCtB
0wd4ondb7zJGQGCmvSDFhdtAMP0RJvhITw1u8R7QhjzkbsF5cZqpKNuD2V5ZLMBd
yBAHn/UWZbH6HWkwvMNYeiAyeZhxauNovntDPCoDJekBqEb7GUBczH1I/LbioxIQ
+sXxM6bh9rEu9+Jc18P8CvU=
-----END CERTIFICATE-----
