Certificate:
    Data:
        Version: 3 (0x2)
        Serial Number: 1 (0x1)
    Signature Algorithm: sha256WithRSAEncryption
        Issuer: DC=org, DC=dCache, CN=disposable-CA
        Validity
            Not Before: May  5 15:23:40 2014 GMT
            Not After : May  5 15:23:40 2015 GMT
        Subject: DC=org, DC=dCache, CN=host/localhost
        Subject Public Key Info:
            Public Key Algorithm: rsaEncryption
                Public-Key: (2048 bit)
                Modulus:
                    00:99:27:8c:b2:a3:f6:63:49:c9:a0:dc:f9:e9:81:
                    53:c9:e9:38:f0:61:d9:e5:e0:36:b2:23:13:7d:88:
                    46:ce:ba:2d:02:85:b2:6b:a4:37:fd:c1:07:35:dd:
                    2a:20:d2:5a:d4:43:c5:d2:27:fc:85:aa:c1:67:9e:
                    ba:c1:81:1c:e4:1a:b6:ea:c3:a5:be:7c:00:ab:bf:
                    a5:41:e2:01:b7:1e:b7:c2:79:d6:33:0f:6f:5d:4f:
                    5c:4b:09:19:ef:5a:27:1f:ab:b1:14:60:a9:c7:45:
                    d0:b9:c2:4c:3f:5f:0f:25:2b:6a:39:b7:f3:c2:d2:
                    7f:0c:5e:47:ec:8c:ca:a5:0e:79:8a:c1:4d:48:f6:
                    dc:af:8d:52:61:60:53:43:62:56:51:f0:d5:ed:62:
                    0e:81:3f:a8:8e:6c:77:ee:59:11:cf:e3:42:c1:66:
                    72:db:76:e4:07:5d:bd:35:3e:85:f3:e1:73:ce:da:
                    8a:1e:51:7a:55:a1:ed:d0:77:35:6d:b5:8f:03:3b:
                    4d:00:1c:bb:27:64:47:b4:a7:53:d1:39:a9:1f:30:
                    89:63:f7:4a:3a:72:ba:1f:4a:9b:ac:1a:b3:e8:bf:
                    b8:8e:af:16:d1:98:77:c9:4e:9c:51:80:a9:45:a0:
                    7f:7b:3b:0d:1c:c2:3d:ba:0a:bb:3b:61:97:d7:63:
                    0b:a3
                Exponent: 65537 (0x10001)
        X509v3 extensions:
            X509v3 Basic Constraints: critical
                CA:FALSE
            X509v3 Key Usage: critical
                Digital Signature, Key Encipherment, Data Encipherment
            Netscape Comment: 
                dCache.org disposable CA generated host certificate
            X509v3 Subject Key Identifier: 
                73:80:D4:B1:A1:BF:58:DF:7B:E6:96:43:DB:E8:74:54:BE:0D:9B:F0
            X509v3 Authority Key Identifier: 
                keyid:83:45:28:F7:9F:25:14:59:14:2E:87:3E:F9:73:4A:79:B3:7D:5C:64

            X509v3 Subject Alternative Name: 
                DNS:localhost
            X509v3 Extended Key Usage: 
                TLS Web Server Authentication, TLS Web Client Authentication
            X509v3 Issuer Alternative Name: 
                email:support@dcache.org, URI:http://www.dcache.org/
            X509v3 Certificate Policies: 
                Policy: X509v3 Any Policy

    Signature Algorithm: sha256WithRSAEncryption
         27:12:0a:97:15:f5:98:74:70:39:c8:61:91:be:70:67:6f:87:
         b9:cb:68:8d:04:db:06:64:59:42:a9:54:f7:5b:86:60:11:9d:
         e9:a2:54:ca:08:35:8d:7a:4f:8d:33:4e:0c:7b:cf:ad:d2:63:
         0a:7b:98:cc:2b:a6:15:fb:52:74:02:f7:52:94:50:23:3f:05:
         98:67:5b:8b:34:97:1a:9a:7c:d0:b5:bf:47:56:14:4b:8b:c0:
         cc:ff:dd:12:d9:91:69:64:4a:92:6f:f9:07:64:39:21:2b:58:
         0e:47:99:b8:37:16:f1:fc:9e:1f:be:7c:18:6d:c2:af:45:de:
         19:b8:3c:6f:4a:b0:6e:d6:cc:30:12:1d:b2:67:b2:cb:35:fa:
         f7:10:c8:96:74:94:f6:8c:64:09:d3:07:69:2b:13:65:65:5d:
         f3:8c:00:be:20:39:4d:0e:99:17:13:de:8a:fd:66:84:64:b7:
         24:a0:d2:fe:47:80:bf:51:26:c3:4c:0c:05:23:ec:b1:23:51:
         e7:b9:8b:39:ac:c3:14:4a:6e:55:8f:74:73:63:b4:a9:18:da:
         d3:75:bb:79:b2:6f:19:7b:d2:5c:0a:5c:d0:c2:8c:cc:79:88:
         84:62:0b:f3:2b:7e:09:c5:b0:6a:fa:01:6f:50:b1:41:9f:e0:
         a6:62:3b:0f
-----BEGIN CERTIFICATE-----
MIIELTCCAxWgAwIBAgIBATANBgkqhkiG9w0BAQsFADBFMRMwEQYKCZImiZPyLGQB
GRYDb3JnMRYwFAYKCZImiZPyLGQBGRYGZENhY2hlMRYwFAYDVQQDEw1kaXNwb3Nh
YmxlLUNBMB4XDTE0MDUwNTE1MjM0MFoXDTE1MDUwNTE1MjM0MFowRjETMBEGCgmS
JomT8ixkARkWA29yZzEWMBQGCgmSJomT8ixkARkWBmRDYWNoZTEXMBUGA1UEAxMO
aG9zdC9sb2NhbGhvc3QwggEiMA0GCSqGSIb3DQEBAQUAA4IBDwAwggEKAoIBAQCZ
J4yyo/ZjScmg3PnpgVPJ6TjwYdnl4DayIxN9iEbOui0ChbJrpDf9wQc13Sog0lrU
Q8XSJ/yFqsFnnrrBgRzkGrbqw6W+fACrv6VB4gG3HrfCedYzD29dT1xLCRnvWicf
q7EUYKnHRdC5wkw/Xw8lK2o5t/PC0n8MXkfsjMqlDnmKwU1I9tyvjVJhYFNDYlZR
8NXtYg6BP6iObHfuWRHP40LBZnLbduQHXb01PoXz4XPO2ooeUXpVoe3QdzVttY8D
O00AHLsnZEe0p1PROakfMIlj90o6crofSpusGrPov7iOrxbRmHfJTpxRgKlFoH97
Ow0cwj26Crs7YZfXYwujAgMBAAGjggElMIIBITAMBgNVHRMBAf8EAjAAMA4GA1Ud
DwEB/wQEAwIEsDBCBglghkgBhvhCAQ0ENRYzZENhY2hlLm9yZyBkaXNwb3NhYmxl
IENBIGdlbmVyYXRlZCBob3N0IGNlcnRpZmljYXRlMB0GA1UdDgQWBBRzgNSxob9Y
33vmlkPb6HRUvg2b8DAfBgNVHSMEGDAWgBSDRSj3nyUUWRQuhz75c0p5s31cZDAU
BgNVHREEDTALgglsb2NhbGhvc3QwHQYDVR0lBBYwFAYIKwYBBQUHAwEGCCsGAQUF
BwMCMDUGA1UdEgQuMCyBEnN1cHBvcnRAZGNhY2hlLm9yZ4YWaHR0cDovL3d3dy5k
Y2FjaGUub3JnLzARBgNVHSAECjAIMAYGBFUdIAAwDQYJKoZIhvcNAQELBQADggEB
ACcSCpcV9Zh0cDnIYZG+cGdvh7nLaI0E2wZkWUKpVPdbhmARnemiVMoINY16T40z
Tgx7z63SYwp7mMwrphX7UnQC91KUUCM/BZhnW4s0lxqafNC1v0dWFEuLwMz/3RLZ
kWlkSpJv+QdkOSErWA5Hmbg3FvH8nh++fBhtwq9F3hm4PG9KsG7WzDASHbJnsss1
+vcQyJZ0lPaMZAnTB2krE2VlXfOMAL4gOU0OmRcT3or9ZoRktySg0v5HgL9RJsNM
DAUj7LEjUee5izmswxRKblWPdHNjtKkY2tN1u3mybxl70lwKXNDCjMx5iIRiC/Mr
fgnFsGr6AW9QsUGf4KZiOw8=
-----END CERTIFICATE-----
